Archive member included to satisfy reference by file (symbol)

c:/program files (x86)/embitz/2.30/share/armgcc/bin/../lib/gcc/arm-none-eabi/9.3.1/../../../../arm-none-eabi/lib/thumb/v7e-m+fp/hard\libg_nano.a(lib_a-exit.o)
                              c:/program files (x86)/embitz/2.30/share/armgcc/bin/../lib/gcc/arm-none-eabi/9.3.1/../../../../arm-none-eabi/lib/thumb/v7e-m+fp/hard/crt0.o (exit)
c:/program files (x86)/embitz/2.30/share/armgcc/bin/../lib/gcc/arm-none-eabi/9.3.1/../../../../arm-none-eabi/lib/thumb/v7e-m+fp/hard\libg_nano.a(lib_a-impure.o)
                              c:/program files (x86)/embitz/2.30/share/armgcc/bin/../lib/gcc/arm-none-eabi/9.3.1/../../../../arm-none-eabi/lib/thumb/v7e-m+fp/hard\libg_nano.a(lib_a-exit.o) (_global_impure_ptr)
c:/program files (x86)/embitz/2.30/share/armgcc/bin/../lib/gcc/arm-none-eabi/9.3.1/../../../../arm-none-eabi/lib/thumb/v7e-m+fp/hard\libg_nano.a(lib_a-init.o)
                              c:/program files (x86)/embitz/2.30/share/armgcc/bin/../lib/gcc/arm-none-eabi/9.3.1/../../../../arm-none-eabi/lib/thumb/v7e-m+fp/hard/crt0.o (__libc_init_array)
c:/program files (x86)/embitz/2.30/share/armgcc/bin/../lib/gcc/arm-none-eabi/9.3.1/../../../../arm-none-eabi/lib/thumb/v7e-m+fp/hard\libg_nano.a(lib_a-malloc.o)
                              obj\debugram\external\modbus\ascii\modbus_ascii.o (malloc)
c:/program files (x86)/embitz/2.30/share/armgcc/bin/../lib/gcc/arm-none-eabi/9.3.1/../../../../arm-none-eabi/lib/thumb/v7e-m+fp/hard\libg_nano.a(lib_a-memset.o)
                              c:/program files (x86)/embitz/2.30/share/armgcc/bin/../lib/gcc/arm-none-eabi/9.3.1/../../../../arm-none-eabi/lib/thumb/v7e-m+fp/hard/crt0.o (memset)
c:/program files (x86)/embitz/2.30/share/armgcc/bin/../lib/gcc/arm-none-eabi/9.3.1/../../../../arm-none-eabi/lib/thumb/v7e-m+fp/hard\libg_nano.a(lib_a-nano-freer.o)
                              c:/program files (x86)/embitz/2.30/share/armgcc/bin/../lib/gcc/arm-none-eabi/9.3.1/../../../../arm-none-eabi/lib/thumb/v7e-m+fp/hard\libg_nano.a(lib_a-malloc.o) (_free_r)
c:/program files (x86)/embitz/2.30/share/armgcc/bin/../lib/gcc/arm-none-eabi/9.3.1/../../../../arm-none-eabi/lib/thumb/v7e-m+fp/hard\libg_nano.a(lib_a-nano-mallocr.o)
                              c:/program files (x86)/embitz/2.30/share/armgcc/bin/../lib/gcc/arm-none-eabi/9.3.1/../../../../arm-none-eabi/lib/thumb/v7e-m+fp/hard\libg_nano.a(lib_a-malloc.o) (_malloc_r)
c:/program files (x86)/embitz/2.30/share/armgcc/bin/../lib/gcc/arm-none-eabi/9.3.1/../../../../arm-none-eabi/lib/thumb/v7e-m+fp/hard\libg_nano.a(lib_a-sbrkr.o)
                              c:/program files (x86)/embitz/2.30/share/armgcc/bin/../lib/gcc/arm-none-eabi/9.3.1/../../../../arm-none-eabi/lib/thumb/v7e-m+fp/hard\libg_nano.a(lib_a-nano-mallocr.o) (_sbrk_r)
c:/program files (x86)/embitz/2.30/share/armgcc/bin/../lib/gcc/arm-none-eabi/9.3.1/../../../../arm-none-eabi/lib/thumb/v7e-m+fp/hard\libg_nano.a(lib_a-mlock.o)
                              c:/program files (x86)/embitz/2.30/share/armgcc/bin/../lib/gcc/arm-none-eabi/9.3.1/../../../../arm-none-eabi/lib/thumb/v7e-m+fp/hard\libg_nano.a(lib_a-nano-freer.o) (__malloc_lock)
c:/program files (x86)/embitz/2.30/share/armgcc/bin/../lib/gcc/arm-none-eabi/9.3.1/../../../../arm-none-eabi/lib/thumb/v7e-m+fp/hard\libg_nano.a(lib_a-reent.o)
                              c:/program files (x86)/embitz/2.30/share/armgcc/bin/../lib/gcc/arm-none-eabi/9.3.1/../../../../arm-none-eabi/lib/thumb/v7e-m+fp/hard\libg_nano.a(lib_a-sbrkr.o) (errno)
c:/program files (x86)/embitz/2.30/share/armgcc/bin/../lib/gcc/arm-none-eabi/9.3.1/../../../../arm-none-eabi/lib/thumb/v7e-m+fp/hard\libg_nano.a(lib_a-lock.o)
                              c:/program files (x86)/embitz/2.30/share/armgcc/bin/../lib/gcc/arm-none-eabi/9.3.1/../../../../arm-none-eabi/lib/thumb/v7e-m+fp/hard\libg_nano.a(lib_a-mlock.o) (__retarget_lock_acquire_recursive)
c:/program files (x86)/embitz/2.30/share/armgcc/bin/../lib/gcc/arm-none-eabi/9.3.1/../../../../arm-none-eabi/lib/thumb/v7e-m+fp/hard\libnosys.a(sbrk.o)
                              c:/program files (x86)/embitz/2.30/share/armgcc/bin/../lib/gcc/arm-none-eabi/9.3.1/../../../../arm-none-eabi/lib/thumb/v7e-m+fp/hard\libg_nano.a(lib_a-sbrkr.o) (_sbrk)
c:/program files (x86)/embitz/2.30/share/armgcc/bin/../lib/gcc/arm-none-eabi/9.3.1/../../../../arm-none-eabi/lib/thumb/v7e-m+fp/hard\libnosys.a(_exit.o)
                              c:/program files (x86)/embitz/2.30/share/armgcc/bin/../lib/gcc/arm-none-eabi/9.3.1/../../../../arm-none-eabi/lib/thumb/v7e-m+fp/hard\libg_nano.a(lib_a-exit.o) (_exit)

Allocating common symbols
Common symbol       size              file

__lock___atexit_recursive_mutex
                    0x1               c:/program files (x86)/embitz/2.30/share/armgcc/bin/../lib/gcc/arm-none-eabi/9.3.1/../../../../arm-none-eabi/lib/thumb/v7e-m+fp/hard\libg_nano.a(lib_a-lock.o)
__lock___arc4random_mutex
                    0x1               c:/program files (x86)/embitz/2.30/share/armgcc/bin/../lib/gcc/arm-none-eabi/9.3.1/../../../../arm-none-eabi/lib/thumb/v7e-m+fp/hard\libg_nano.a(lib_a-lock.o)
errno               0x4               c:/program files (x86)/embitz/2.30/share/armgcc/bin/../lib/gcc/arm-none-eabi/9.3.1/../../../../arm-none-eabi/lib/thumb/v7e-m+fp/hard\libg_nano.a(lib_a-reent.o)
UART_FunctionIndexPointer
                    0x4               obj\debugram\external\modbus\ascii\modbus_ascii.o
UART_CurrentIndexPointer
                    0x4               obj\debugram\external\modbus\ascii\modbus_ascii.o
__lock___env_recursive_mutex
                    0x1               c:/program files (x86)/embitz/2.30/share/armgcc/bin/../lib/gcc/arm-none-eabi/9.3.1/../../../../arm-none-eabi/lib/thumb/v7e-m+fp/hard\libg_nano.a(lib_a-lock.o)
__lock___sinit_recursive_mutex
                    0x1               c:/program files (x86)/embitz/2.30/share/armgcc/bin/../lib/gcc/arm-none-eabi/9.3.1/../../../../arm-none-eabi/lib/thumb/v7e-m+fp/hard\libg_nano.a(lib_a-lock.o)
UART_LRCIndexPointer
                    0x4               obj\debugram\external\modbus\ascii\modbus_ascii.o
TIMStatus           0x20              obj\debugram\external\mpu9250\mpu9250.o
__lock___malloc_recursive_mutex
                    0x1               c:/program files (x86)/embitz/2.30/share/armgcc/bin/../lib/gcc/arm-none-eabi/9.3.1/../../../../arm-none-eabi/lib/thumb/v7e-m+fp/hard\libg_nano.a(lib_a-lock.o)
UART_Buffer         0x4               obj\debugram\external\modbus\ascii\modbus_ascii.o
UART_EndMsgPointer  0x4               obj\debugram\external\modbus\ascii\modbus_ascii.o
UART_StartMsgPointer
                    0x4               obj\debugram\external\modbus\ascii\modbus_ascii.o
Motor_Coord         0x4               obj\debugram\external\modbus\ascii\modbus_ascii.o
ADC1_Data           0x4               obj\debugram\src\main.o
ADCStatus           0x2c              obj\debugram\external\mpu9250\mpu9250.o
__lock___at_quick_exit_mutex
                    0x1               c:/program files (x86)/embitz/2.30/share/armgcc/bin/../lib/gcc/arm-none-eabi/9.3.1/../../../../arm-none-eabi/lib/thumb/v7e-m+fp/hard\libg_nano.a(lib_a-lock.o)
__lock___dd_hash_mutex
                    0x1               c:/program files (x86)/embitz/2.30/share/armgcc/bin/../lib/gcc/arm-none-eabi/9.3.1/../../../../arm-none-eabi/lib/thumb/v7e-m+fp/hard\libg_nano.a(lib_a-lock.o)
__lock___tz_mutex   0x1               c:/program files (x86)/embitz/2.30/share/armgcc/bin/../lib/gcc/arm-none-eabi/9.3.1/../../../../arm-none-eabi/lib/thumb/v7e-m+fp/hard\libg_nano.a(lib_a-lock.o)
EnginePWM           0x4               obj\debugram\external\modbus\ascii\modbus_ascii.o
UART_AddressIndexPointer
                    0x4               obj\debugram\external\modbus\ascii\modbus_ascii.o
Clocks              0x14              obj\debugram\external\mpu9250\mpu9250.o
__lock___sfp_recursive_mutex
                    0x1               c:/program files (x86)/embitz/2.30/share/armgcc/bin/../lib/gcc/arm-none-eabi/9.3.1/../../../../arm-none-eabi/lib/thumb/v7e-m+fp/hard\libg_nano.a(lib_a-lock.o)

Discarded input sections

 .text          0x00000000        0x0 c:/program files (x86)/embitz/2.30/share/armgcc/bin/../lib/gcc/arm-none-eabi/9.3.1/thumb/v7e-m+fp/hard/crti.o
 .data          0x00000000        0x0 c:/program files (x86)/embitz/2.30/share/armgcc/bin/../lib/gcc/arm-none-eabi/9.3.1/thumb/v7e-m+fp/hard/crti.o
 .bss           0x00000000        0x0 c:/program files (x86)/embitz/2.30/share/armgcc/bin/../lib/gcc/arm-none-eabi/9.3.1/thumb/v7e-m+fp/hard/crti.o
 .data          0x00000000        0x4 c:/program files (x86)/embitz/2.30/share/armgcc/bin/../lib/gcc/arm-none-eabi/9.3.1/thumb/v7e-m+fp/hard/crtbegin.o
 .text          0x00000000       0x7c c:/program files (x86)/embitz/2.30/share/armgcc/bin/../lib/gcc/arm-none-eabi/9.3.1/../../../../arm-none-eabi/lib/thumb/v7e-m+fp/hard/crt0.o
 .data          0x00000000        0x0 c:/program files (x86)/embitz/2.30/share/armgcc/bin/../lib/gcc/arm-none-eabi/9.3.1/../../../../arm-none-eabi/lib/thumb/v7e-m+fp/hard/crt0.o
 .bss           0x00000000        0x0 c:/program files (x86)/embitz/2.30/share/armgcc/bin/../lib/gcc/arm-none-eabi/9.3.1/../../../../arm-none-eabi/lib/thumb/v7e-m+fp/hard/crt0.o
 .ARM.extab     0x00000000        0x0 c:/program files (x86)/embitz/2.30/share/armgcc/bin/../lib/gcc/arm-none-eabi/9.3.1/../../../../arm-none-eabi/lib/thumb/v7e-m+fp/hard/crt0.o
 .ARM.exidx     0x00000000       0x10 c:/program files (x86)/embitz/2.30/share/armgcc/bin/../lib/gcc/arm-none-eabi/9.3.1/../../../../arm-none-eabi/lib/thumb/v7e-m+fp/hard/crt0.o
 .ARM.attributes
                0x00000000       0x1c c:/program files (x86)/embitz/2.30/share/armgcc/bin/../lib/gcc/arm-none-eabi/9.3.1/../../../../arm-none-eabi/lib/thumb/v7e-m+fp/hard/crt0.o
 .text          0x00000000       0x14 obj\debugram\src\startup_stm32f401xc.o
 .data          0x00000000        0x0 obj\debugram\src\startup_stm32f401xc.o
 .bss           0x00000000        0x0 obj\debugram\src\startup_stm32f401xc.o
 .text          0x00000000        0x0 obj\debugram\external\matrix\matrix.o
 .data          0x00000000        0x0 obj\debugram\external\matrix\matrix.o
 .bss           0x00000000        0x0 obj\debugram\external\matrix\matrix.o
 .debug_line    0x00000000        0x0 obj\debugram\external\matrix\matrix.o
 .debug_str     0x00000000       0xfa obj\debugram\external\matrix\matrix.o
 .comment       0x00000000       0x4d obj\debugram\external\matrix\matrix.o
 .ARM.attributes
                0x00000000       0x39 obj\debugram\external\matrix\matrix.o
 .text          0x00000000        0x0 obj\debugram\external\modbus\ascii\modbus_ascii.o
 .data          0x00000000        0x0 obj\debugram\external\modbus\ascii\modbus_ascii.o
 .bss           0x00000000        0x0 obj\debugram\external\modbus\ascii\modbus_ascii.o
 .text.ModBus_ReInit
                0x00000000       0x70 obj\debugram\external\modbus\ascii\modbus_ascii.o
 .text.ModBus_CloseTransmission
                0x00000000       0x70 obj\debugram\external\modbus\ascii\modbus_ascii.o
 .text.ModBus_CalculateLRC
                0x00000000       0x40 obj\debugram\external\modbus\ascii\modbus_ascii.o
 .rodata.EndFrame
                0x00000000        0x2 obj\debugram\external\modbus\ascii\modbus_ascii.o
 .text.ModBus_CheckFrame
                0x00000000       0x20 obj\debugram\external\modbus\ascii\modbus_ascii.o
 .text          0x00000000        0x0 obj\debugram\external\mpu9250\mpu9250.o
 .data          0x00000000        0x0 obj\debugram\external\mpu9250\mpu9250.o
 .bss           0x00000000        0x0 obj\debugram\external\mpu9250\mpu9250.o
 .data.PrescalerTable
                0x00000000       0x10 obj\debugram\external\mpu9250\mpu9250.o
 .bss.RCH       0x00000000        0x1 obj\debugram\external\mpu9250\mpu9250.o
 .bss.JCH       0x00000000        0x1 obj\debugram\external\mpu9250\mpu9250.o
 .text          0x00000000        0x0 obj\debugram\external\regulators\regulators.o
 .data          0x00000000        0x0 obj\debugram\external\regulators\regulators.o
 .bss           0x00000000        0x0 obj\debugram\external\regulators\regulators.o
 .data.PrescalerTable
                0x00000000       0x10 obj\debugram\external\regulators\regulators.o
 .bss.RCH       0x00000000        0x1 obj\debugram\external\regulators\regulators.o
 .bss.JCH       0x00000000        0x1 obj\debugram\external\regulators\regulators.o
 .debug_info    0x00000000      0xc5b obj\debugram\external\regulators\regulators.o
 .debug_abbrev  0x00000000      0x1ed obj\debugram\external\regulators\regulators.o
 .debug_aranges
                0x00000000       0x18 obj\debugram\external\regulators\regulators.o
 .debug_line    0x00000000      0x252 obj\debugram\external\regulators\regulators.o
 .debug_str     0x00000000      0x7c3 obj\debugram\external\regulators\regulators.o
 .comment       0x00000000       0x4d obj\debugram\external\regulators\regulators.o
 .ARM.attributes
                0x00000000       0x39 obj\debugram\external\regulators\regulators.o
 .text          0x00000000        0x0 obj\debugram\external\ssd1306\fonts.o
 .data          0x00000000        0x0 obj\debugram\external\ssd1306\fonts.o
 .bss           0x00000000        0x0 obj\debugram\external\ssd1306\fonts.o
 .debug_info    0x00000000      0x9f7 obj\debugram\external\ssd1306\fonts.o
 .debug_abbrev  0x00000000      0x1b8 obj\debugram\external\ssd1306\fonts.o
 .debug_aranges
                0x00000000       0x18 obj\debugram\external\ssd1306\fonts.o
 .debug_line    0x00000000      0x1a5 obj\debugram\external\ssd1306\fonts.o
 .debug_str     0x00000000      0x618 obj\debugram\external\ssd1306\fonts.o
 .comment       0x00000000       0x4d obj\debugram\external\ssd1306\fonts.o
 .ARM.attributes
                0x00000000       0x39 obj\debugram\external\ssd1306\fonts.o
 .text          0x00000000        0x0 obj\debugram\external\ssd1306\images.o
 .data          0x00000000        0x0 obj\debugram\external\ssd1306\images.o
 .bss           0x00000000        0x0 obj\debugram\external\ssd1306\images.o
 .data.PrescalerTable
                0x00000000       0x10 obj\debugram\external\ssd1306\images.o
 .bss.RCH       0x00000000        0x1 obj\debugram\external\ssd1306\images.o
 .bss.JCH       0x00000000        0x1 obj\debugram\external\ssd1306\images.o
 .debug_info    0x00000000      0xc5b obj\debugram\external\ssd1306\images.o
 .debug_abbrev  0x00000000      0x1ed obj\debugram\external\ssd1306\images.o
 .debug_aranges
                0x00000000       0x18 obj\debugram\external\ssd1306\images.o
 .debug_line    0x00000000      0x252 obj\debugram\external\ssd1306\images.o
 .debug_str     0x00000000      0x7bc obj\debugram\external\ssd1306\images.o
 .comment       0x00000000       0x4d obj\debugram\external\ssd1306\images.o
 .ARM.attributes
                0x00000000       0x39 obj\debugram\external\ssd1306\images.o
 .text          0x00000000        0x0 obj\debugram\external\ssd1306\ssd1306.o
 .data          0x00000000        0x0 obj\debugram\external\ssd1306\ssd1306.o
 .bss           0x00000000        0x0 obj\debugram\external\ssd1306\ssd1306.o
 .data.PrescalerTable
                0x00000000       0x10 obj\debugram\external\ssd1306\ssd1306.o
 .bss.RCH       0x00000000        0x1 obj\debugram\external\ssd1306\ssd1306.o
 .bss.JCH       0x00000000        0x1 obj\debugram\external\ssd1306\ssd1306.o
 .debug_info    0x00000000      0xc5b obj\debugram\external\ssd1306\ssd1306.o
 .debug_abbrev  0x00000000      0x1ed obj\debugram\external\ssd1306\ssd1306.o
 .debug_aranges
                0x00000000       0x18 obj\debugram\external\ssd1306\ssd1306.o
 .debug_line    0x00000000      0x252 obj\debugram\external\ssd1306\ssd1306.o
 .debug_str     0x00000000      0x7bd obj\debugram\external\ssd1306\ssd1306.o
 .comment       0x00000000       0x4d obj\debugram\external\ssd1306\ssd1306.o
 .ARM.attributes
                0x00000000       0x39 obj\debugram\external\ssd1306\ssd1306.o
 .text          0x00000000        0x0 obj\debugram\external\ssd1306\ssd1306_i2c.o
 .data          0x00000000        0x0 obj\debugram\external\ssd1306\ssd1306_i2c.o
 .bss           0x00000000        0x0 obj\debugram\external\ssd1306\ssd1306_i2c.o
 .data.PrescalerTable
                0x00000000       0x10 obj\debugram\external\ssd1306\ssd1306_i2c.o
 .bss.RCH       0x00000000        0x1 obj\debugram\external\ssd1306\ssd1306_i2c.o
 .bss.JCH       0x00000000        0x1 obj\debugram\external\ssd1306\ssd1306_i2c.o
 .debug_info    0x00000000      0xc5b obj\debugram\external\ssd1306\ssd1306_i2c.o
 .debug_abbrev  0x00000000      0x1ed obj\debugram\external\ssd1306\ssd1306_i2c.o
 .debug_aranges
                0x00000000       0x18 obj\debugram\external\ssd1306\ssd1306_i2c.o
 .debug_line    0x00000000      0x252 obj\debugram\external\ssd1306\ssd1306_i2c.o
 .debug_str     0x00000000      0x7c1 obj\debugram\external\ssd1306\ssd1306_i2c.o
 .comment       0x00000000       0x4d obj\debugram\external\ssd1306\ssd1306_i2c.o
 .ARM.attributes
                0x00000000       0x39 obj\debugram\external\ssd1306\ssd1306_i2c.o
 .text          0x00000000        0x0 obj\debugram\fil_lib\src\adc.o
 .data          0x00000000        0x0 obj\debugram\fil_lib\src\adc.o
 .bss           0x00000000        0x0 obj\debugram\fil_lib\src\adc.o
 .data.PrescalerTable
                0x00000000       0x10 obj\debugram\fil_lib\src\adc.o
 .bss.RCH       0x00000000        0x1 obj\debugram\fil_lib\src\adc.o
 .bss.JCH       0x00000000        0x1 obj\debugram\fil_lib\src\adc.o
 .text.ADC_IRQHandler
                0x00000000        0xe obj\debugram\fil_lib\src\adc.o
 .bss.ADC1_Data
                0x00000000        0x4 obj\debugram\fil_lib\src\adc.o
 .text.ADC_Init
                0x00000000      0x168 obj\debugram\fil_lib\src\adc.o
 .debug_info    0x00000000      0xe84 obj\debugram\fil_lib\src\adc.o
 .debug_abbrev  0x00000000      0x24e obj\debugram\fil_lib\src\adc.o
 .debug_aranges
                0x00000000       0x28 obj\debugram\fil_lib\src\adc.o
 .debug_ranges  0x00000000       0x18 obj\debugram\fil_lib\src\adc.o
 .debug_line    0x00000000      0x2e3 obj\debugram\fil_lib\src\adc.o
 .debug_str     0x00000000      0x859 obj\debugram\fil_lib\src\adc.o
 .comment       0x00000000       0x4d obj\debugram\fil_lib\src\adc.o
 .debug_frame   0x00000000       0x58 obj\debugram\fil_lib\src\adc.o
 .ARM.attributes
                0x00000000       0x34 obj\debugram\fil_lib\src\adc.o
 .text          0x00000000        0x0 obj\debugram\fil_lib\src\dma.o
 .data          0x00000000        0x0 obj\debugram\fil_lib\src\dma.o
 .bss           0x00000000        0x0 obj\debugram\fil_lib\src\dma.o
 .data.PrescalerTable
                0x00000000       0x10 obj\debugram\fil_lib\src\dma.o
 .bss.RCH       0x00000000        0x1 obj\debugram\fil_lib\src\dma.o
 .bss.JCH       0x00000000        0x1 obj\debugram\fil_lib\src\dma.o
 .debug_info    0x00000000      0xc5b obj\debugram\fil_lib\src\dma.o
 .debug_abbrev  0x00000000      0x1ed obj\debugram\fil_lib\src\dma.o
 .debug_aranges
                0x00000000       0x18 obj\debugram\fil_lib\src\dma.o
 .debug_line    0x00000000      0x252 obj\debugram\fil_lib\src\dma.o
 .debug_str     0x00000000      0x7b4 obj\debugram\fil_lib\src\dma.o
 .comment       0x00000000       0x4d obj\debugram\fil_lib\src\dma.o
 .ARM.attributes
                0x00000000       0x39 obj\debugram\fil_lib\src\dma.o
 .text          0x00000000        0x0 obj\debugram\fil_lib\src\exti.o
 .data          0x00000000        0x0 obj\debugram\fil_lib\src\exti.o
 .bss           0x00000000        0x0 obj\debugram\fil_lib\src\exti.o
 .data.PrescalerTable
                0x00000000       0x10 obj\debugram\fil_lib\src\exti.o
 .bss.RCH       0x00000000        0x1 obj\debugram\fil_lib\src\exti.o
 .bss.JCH       0x00000000        0x1 obj\debugram\fil_lib\src\exti.o
 .debug_info    0x00000000      0xc5b obj\debugram\fil_lib\src\exti.o
 .debug_abbrev  0x00000000      0x1ed obj\debugram\fil_lib\src\exti.o
 .debug_aranges
                0x00000000       0x18 obj\debugram\fil_lib\src\exti.o
 .debug_line    0x00000000      0x252 obj\debugram\fil_lib\src\exti.o
 .debug_str     0x00000000      0x7b5 obj\debugram\fil_lib\src\exti.o
 .comment       0x00000000       0x4d obj\debugram\fil_lib\src\exti.o
 .ARM.attributes
                0x00000000       0x39 obj\debugram\fil_lib\src\exti.o
 .text          0x00000000        0x0 obj\debugram\fil_lib\src\i2c.o
 .data          0x00000000        0x0 obj\debugram\fil_lib\src\i2c.o
 .bss           0x00000000        0x0 obj\debugram\fil_lib\src\i2c.o
 .data.PrescalerTable
                0x00000000       0x10 obj\debugram\fil_lib\src\i2c.o
 .bss.RCH       0x00000000        0x1 obj\debugram\fil_lib\src\i2c.o
 .bss.JCH       0x00000000        0x1 obj\debugram\fil_lib\src\i2c.o
 .debug_info    0x00000000      0xc5b obj\debugram\fil_lib\src\i2c.o
 .debug_abbrev  0x00000000      0x1ed obj\debugram\fil_lib\src\i2c.o
 .debug_aranges
                0x00000000       0x18 obj\debugram\fil_lib\src\i2c.o
 .debug_line    0x00000000      0x252 obj\debugram\fil_lib\src\i2c.o
 .debug_str     0x00000000      0x7b4 obj\debugram\fil_lib\src\i2c.o
 .comment       0x00000000       0x4d obj\debugram\fil_lib\src\i2c.o
 .ARM.attributes
                0x00000000       0x39 obj\debugram\fil_lib\src\i2c.o
 .text          0x00000000        0x0 obj\debugram\fil_lib\src\rcc.o
 .data          0x00000000        0x0 obj\debugram\fil_lib\src\rcc.o
 .bss           0x00000000        0x0 obj\debugram\fil_lib\src\rcc.o
 .bss.RCH       0x00000000        0x1 obj\debugram\fil_lib\src\rcc.o
 .bss.JCH       0x00000000        0x1 obj\debugram\fil_lib\src\rcc.o
 .text          0x00000000        0x0 obj\debugram\fil_lib\src\rtc.o
 .data          0x00000000        0x0 obj\debugram\fil_lib\src\rtc.o
 .bss           0x00000000        0x0 obj\debugram\fil_lib\src\rtc.o
 .data.PrescalerTable
                0x00000000       0x10 obj\debugram\fil_lib\src\rtc.o
 .bss.RCH       0x00000000        0x1 obj\debugram\fil_lib\src\rtc.o
 .bss.JCH       0x00000000        0x1 obj\debugram\fil_lib\src\rtc.o
 .debug_info    0x00000000      0xc5b obj\debugram\fil_lib\src\rtc.o
 .debug_abbrev  0x00000000      0x1ed obj\debugram\fil_lib\src\rtc.o
 .debug_aranges
                0x00000000       0x18 obj\debugram\fil_lib\src\rtc.o
 .debug_line    0x00000000      0x252 obj\debugram\fil_lib\src\rtc.o
 .debug_str     0x00000000      0x7b4 obj\debugram\fil_lib\src\rtc.o
 .comment       0x00000000       0x4d obj\debugram\fil_lib\src\rtc.o
 .ARM.attributes
                0x00000000       0x39 obj\debugram\fil_lib\src\rtc.o
 .text          0x00000000        0x0 obj\debugram\fil_lib\src\tim.o
 .data          0x00000000        0x0 obj\debugram\fil_lib\src\tim.o
 .bss           0x00000000        0x0 obj\debugram\fil_lib\src\tim.o
 .data.PrescalerTable
                0x00000000       0x10 obj\debugram\fil_lib\src\tim.o
 .bss.RCH       0x00000000        0x1 obj\debugram\fil_lib\src\tim.o
 .bss.JCH       0x00000000        0x1 obj\debugram\fil_lib\src\tim.o
 .text.TIM1_IRQHandler
                0x00000000       0x18 obj\debugram\fil_lib\src\tim.o
 .text.TIM2_IRQHandler
                0x00000000       0x16 obj\debugram\fil_lib\src\tim.o
 .text.TIM3_IRQHandler
                0x00000000       0x18 obj\debugram\fil_lib\src\tim.o
 .text.TIM4_IRQHandler
                0x00000000       0x18 obj\debugram\fil_lib\src\tim.o
 .text.TIM5_IRQHandler
                0x00000000       0x18 obj\debugram\fil_lib\src\tim.o
 .bss.startTick
                0x00000000        0x4 obj\debugram\fil_lib\src\tim.o
 .text.delay_ms
                0x00000000       0x40 obj\debugram\fil_lib\src\tim.o
 .text.delay_sec
                0x00000000       0x54 obj\debugram\fil_lib\src\tim.o
 .text.CalcTimStatus
                0x00000000      0x200 obj\debugram\fil_lib\src\tim.o
 .text.CalcTimPulseLength
                0x00000000      0x164 obj\debugram\fil_lib\src\tim.o
 .text.SetPWM   0x00000000       0xd0 obj\debugram\fil_lib\src\tim.o
 .text.CalcTimDuration
                0x00000000       0x40 obj\debugram\fil_lib\src\tim.o
 .text          0x00000000        0x0 obj\debugram\fil_lib\src\usart.o
 .data          0x00000000        0x0 obj\debugram\fil_lib\src\usart.o
 .bss           0x00000000        0x0 obj\debugram\fil_lib\src\usart.o
 .data.PrescalerTable
                0x00000000       0x10 obj\debugram\fil_lib\src\usart.o
 .bss.RCH       0x00000000        0x1 obj\debugram\fil_lib\src\usart.o
 .bss.JCH       0x00000000        0x1 obj\debugram\fil_lib\src\usart.o
 .debug_info    0x00000000      0xc5b obj\debugram\fil_lib\src\usart.o
 .debug_abbrev  0x00000000      0x1ed obj\debugram\fil_lib\src\usart.o
 .debug_aranges
                0x00000000       0x18 obj\debugram\fil_lib\src\usart.o
 .debug_line    0x00000000      0x252 obj\debugram\fil_lib\src\usart.o
 .debug_str     0x00000000      0x7b6 obj\debugram\fil_lib\src\usart.o
 .comment       0x00000000       0x4d obj\debugram\fil_lib\src\usart.o
 .ARM.attributes
                0x00000000       0x39 obj\debugram\fil_lib\src\usart.o
 .text          0x00000000        0x0 obj\debugram\src\main.o
 .data          0x00000000        0x0 obj\debugram\src\main.o
 .bss           0x00000000        0x0 obj\debugram\src\main.o
 .data.PrescalerTable
                0x00000000       0x10 obj\debugram\src\main.o
 .bss.RCH       0x00000000        0x1 obj\debugram\src\main.o
 .bss.JCH       0x00000000        0x1 obj\debugram\src\main.o
 COMMON         0x00000000        0x4 obj\debugram\src\main.o
 .text          0x00000000        0x0 obj\debugram\dev\dev.o
 .data          0x00000000        0x0 obj\debugram\dev\dev.o
 .bss           0x00000000        0x0 obj\debugram\dev\dev.o
 .data.PrescalerTable
                0x00000000       0x10 obj\debugram\dev\dev.o
 .bss.RCH       0x00000000        0x1 obj\debugram\dev\dev.o
 .bss.JCH       0x00000000        0x1 obj\debugram\dev\dev.o
 .text.SetVoltage
                0x00000000       0x40 obj\debugram\dev\dev.o
 .text.ServoInit
                0x00000000       0x78 obj\debugram\dev\dev.o
 .text.ServoSetRange
                0x00000000       0x32 obj\debugram\dev\dev.o
 .text.ServoSetAngle
                0x00000000       0xec obj\debugram\dev\dev.o
 .debug_info    0x00000000     0x1024 obj\debugram\dev\dev.o
 .debug_abbrev  0x00000000      0x25e obj\debugram\dev\dev.o
 .debug_aranges
                0x00000000       0x38 obj\debugram\dev\dev.o
 .debug_ranges  0x00000000       0x28 obj\debugram\dev\dev.o
 .debug_line    0x00000000      0x37d obj\debugram\dev\dev.o
 .debug_str     0x00000000      0x93d obj\debugram\dev\dev.o
 .comment       0x00000000       0x4d obj\debugram\dev\dev.o
 .debug_frame   0x00000000       0xb0 obj\debugram\dev\dev.o
 .ARM.attributes
                0x00000000       0x34 obj\debugram\dev\dev.o
 .text          0x00000000        0x0 obj\debugram\src\system_stm32f4xx.o
 .data          0x00000000        0x0 obj\debugram\src\system_stm32f4xx.o
 .bss           0x00000000        0x0 obj\debugram\src\system_stm32f4xx.o
 .data.SystemCoreClock
                0x00000000        0x4 obj\debugram\src\system_stm32f4xx.o
 .data.AHBPrescTable
                0x00000000       0x10 obj\debugram\src\system_stm32f4xx.o
 .text.SystemCoreClockUpdate
                0x00000000      0x104 obj\debugram\src\system_stm32f4xx.o
 .text          0x00000000        0x0 c:/program files (x86)/embitz/2.30/share/armgcc/bin/../lib/gcc/arm-none-eabi/9.3.1/../../../../arm-none-eabi/lib/thumb/v7e-m+fp/hard\libg_nano.a(lib_a-exit.o)
 .data          0x00000000        0x0 c:/program files (x86)/embitz/2.30/share/armgcc/bin/../lib/gcc/arm-none-eabi/9.3.1/../../../../arm-none-eabi/lib/thumb/v7e-m+fp/hard\libg_nano.a(lib_a-exit.o)
 .bss           0x00000000        0x0 c:/program files (x86)/embitz/2.30/share/armgcc/bin/../lib/gcc/arm-none-eabi/9.3.1/../../../../arm-none-eabi/lib/thumb/v7e-m+fp/hard\libg_nano.a(lib_a-exit.o)
 .text.exit     0x00000000       0x28 c:/program files (x86)/embitz/2.30/share/armgcc/bin/../lib/gcc/arm-none-eabi/9.3.1/../../../../arm-none-eabi/lib/thumb/v7e-m+fp/hard\libg_nano.a(lib_a-exit.o)
 .debug_frame   0x00000000       0x28 c:/program files (x86)/embitz/2.30/share/armgcc/bin/../lib/gcc/arm-none-eabi/9.3.1/../../../../arm-none-eabi/lib/thumb/v7e-m+fp/hard\libg_nano.a(lib_a-exit.o)
 .ARM.attributes
                0x00000000       0x34 c:/program files (x86)/embitz/2.30/share/armgcc/bin/../lib/gcc/arm-none-eabi/9.3.1/../../../../arm-none-eabi/lib/thumb/v7e-m+fp/hard\libg_nano.a(lib_a-exit.o)
 .text          0x00000000        0x0 c:/program files (x86)/embitz/2.30/share/armgcc/bin/../lib/gcc/arm-none-eabi/9.3.1/../../../../arm-none-eabi/lib/thumb/v7e-m+fp/hard\libg_nano.a(lib_a-impure.o)
 .data          0x00000000        0x0 c:/program files (x86)/embitz/2.30/share/armgcc/bin/../lib/gcc/arm-none-eabi/9.3.1/../../../../arm-none-eabi/lib/thumb/v7e-m+fp/hard\libg_nano.a(lib_a-impure.o)
 .bss           0x00000000        0x0 c:/program files (x86)/embitz/2.30/share/armgcc/bin/../lib/gcc/arm-none-eabi/9.3.1/../../../../arm-none-eabi/lib/thumb/v7e-m+fp/hard\libg_nano.a(lib_a-impure.o)
 .rodata._global_impure_ptr
                0x00000000        0x4 c:/program files (x86)/embitz/2.30/share/armgcc/bin/../lib/gcc/arm-none-eabi/9.3.1/../../../../arm-none-eabi/lib/thumb/v7e-m+fp/hard\libg_nano.a(lib_a-impure.o)
 .text          0x00000000        0x0 c:/program files (x86)/embitz/2.30/share/armgcc/bin/../lib/gcc/arm-none-eabi/9.3.1/../../../../arm-none-eabi/lib/thumb/v7e-m+fp/hard\libg_nano.a(lib_a-init.o)
 .data          0x00000000        0x0 c:/program files (x86)/embitz/2.30/share/armgcc/bin/../lib/gcc/arm-none-eabi/9.3.1/../../../../arm-none-eabi/lib/thumb/v7e-m+fp/hard\libg_nano.a(lib_a-init.o)
 .bss           0x00000000        0x0 c:/program files (x86)/embitz/2.30/share/armgcc/bin/../lib/gcc/arm-none-eabi/9.3.1/../../../../arm-none-eabi/lib/thumb/v7e-m+fp/hard\libg_nano.a(lib_a-init.o)
 .text.__libc_init_array
                0x00000000       0x48 c:/program files (x86)/embitz/2.30/share/armgcc/bin/../lib/gcc/arm-none-eabi/9.3.1/../../../../arm-none-eabi/lib/thumb/v7e-m+fp/hard\libg_nano.a(lib_a-init.o)
 .debug_frame   0x00000000       0x2c c:/program files (x86)/embitz/2.30/share/armgcc/bin/../lib/gcc/arm-none-eabi/9.3.1/../../../../arm-none-eabi/lib/thumb/v7e-m+fp/hard\libg_nano.a(lib_a-init.o)
 .ARM.attributes
                0x00000000       0x34 c:/program files (x86)/embitz/2.30/share/armgcc/bin/../lib/gcc/arm-none-eabi/9.3.1/../../../../arm-none-eabi/lib/thumb/v7e-m+fp/hard\libg_nano.a(lib_a-init.o)
 .text          0x00000000        0x0 c:/program files (x86)/embitz/2.30/share/armgcc/bin/../lib/gcc/arm-none-eabi/9.3.1/../../../../arm-none-eabi/lib/thumb/v7e-m+fp/hard\libg_nano.a(lib_a-malloc.o)
 .data          0x00000000        0x0 c:/program files (x86)/embitz/2.30/share/armgcc/bin/../lib/gcc/arm-none-eabi/9.3.1/../../../../arm-none-eabi/lib/thumb/v7e-m+fp/hard\libg_nano.a(lib_a-malloc.o)
 .bss           0x00000000        0x0 c:/program files (x86)/embitz/2.30/share/armgcc/bin/../lib/gcc/arm-none-eabi/9.3.1/../../../../arm-none-eabi/lib/thumb/v7e-m+fp/hard\libg_nano.a(lib_a-malloc.o)
 .text.free     0x00000000       0x10 c:/program files (x86)/embitz/2.30/share/armgcc/bin/../lib/gcc/arm-none-eabi/9.3.1/../../../../arm-none-eabi/lib/thumb/v7e-m+fp/hard\libg_nano.a(lib_a-malloc.o)
 .text          0x00000000        0x0 c:/program files (x86)/embitz/2.30/share/armgcc/bin/../lib/gcc/arm-none-eabi/9.3.1/../../../../arm-none-eabi/lib/thumb/v7e-m+fp/hard\libg_nano.a(lib_a-memset.o)
 .data          0x00000000        0x0 c:/program files (x86)/embitz/2.30/share/armgcc/bin/../lib/gcc/arm-none-eabi/9.3.1/../../../../arm-none-eabi/lib/thumb/v7e-m+fp/hard\libg_nano.a(lib_a-memset.o)
 .bss           0x00000000        0x0 c:/program files (x86)/embitz/2.30/share/armgcc/bin/../lib/gcc/arm-none-eabi/9.3.1/../../../../arm-none-eabi/lib/thumb/v7e-m+fp/hard\libg_nano.a(lib_a-memset.o)
 .text.memset   0x00000000       0x10 c:/program files (x86)/embitz/2.30/share/armgcc/bin/../lib/gcc/arm-none-eabi/9.3.1/../../../../arm-none-eabi/lib/thumb/v7e-m+fp/hard\libg_nano.a(lib_a-memset.o)
 .debug_frame   0x00000000       0x20 c:/program files (x86)/embitz/2.30/share/armgcc/bin/../lib/gcc/arm-none-eabi/9.3.1/../../../../arm-none-eabi/lib/thumb/v7e-m+fp/hard\libg_nano.a(lib_a-memset.o)
 .ARM.attributes
                0x00000000       0x34 c:/program files (x86)/embitz/2.30/share/armgcc/bin/../lib/gcc/arm-none-eabi/9.3.1/../../../../arm-none-eabi/lib/thumb/v7e-m+fp/hard\libg_nano.a(lib_a-memset.o)
 .text          0x00000000        0x0 c:/program files (x86)/embitz/2.30/share/armgcc/bin/../lib/gcc/arm-none-eabi/9.3.1/../../../../arm-none-eabi/lib/thumb/v7e-m+fp/hard\libg_nano.a(lib_a-nano-freer.o)
 .data          0x00000000        0x0 c:/program files (x86)/embitz/2.30/share/armgcc/bin/../lib/gcc/arm-none-eabi/9.3.1/../../../../arm-none-eabi/lib/thumb/v7e-m+fp/hard\libg_nano.a(lib_a-nano-freer.o)
 .bss           0x00000000        0x0 c:/program files (x86)/embitz/2.30/share/armgcc/bin/../lib/gcc/arm-none-eabi/9.3.1/../../../../arm-none-eabi/lib/thumb/v7e-m+fp/hard\libg_nano.a(lib_a-nano-freer.o)
 .text._free_r  0x00000000       0xa0 c:/program files (x86)/embitz/2.30/share/armgcc/bin/../lib/gcc/arm-none-eabi/9.3.1/../../../../arm-none-eabi/lib/thumb/v7e-m+fp/hard\libg_nano.a(lib_a-nano-freer.o)
 .debug_frame   0x00000000       0x38 c:/program files (x86)/embitz/2.30/share/armgcc/bin/../lib/gcc/arm-none-eabi/9.3.1/../../../../arm-none-eabi/lib/thumb/v7e-m+fp/hard\libg_nano.a(lib_a-nano-freer.o)
 .ARM.attributes
                0x00000000       0x34 c:/program files (x86)/embitz/2.30/share/armgcc/bin/../lib/gcc/arm-none-eabi/9.3.1/../../../../arm-none-eabi/lib/thumb/v7e-m+fp/hard\libg_nano.a(lib_a-nano-freer.o)
 .text          0x00000000        0x0 c:/program files (x86)/embitz/2.30/share/armgcc/bin/../lib/gcc/arm-none-eabi/9.3.1/../../../../arm-none-eabi/lib/thumb/v7e-m+fp/hard\libg_nano.a(lib_a-nano-mallocr.o)
 .data          0x00000000        0x0 c:/program files (x86)/embitz/2.30/share/armgcc/bin/../lib/gcc/arm-none-eabi/9.3.1/../../../../arm-none-eabi/lib/thumb/v7e-m+fp/hard\libg_nano.a(lib_a-nano-mallocr.o)
 .bss           0x00000000        0x0 c:/program files (x86)/embitz/2.30/share/armgcc/bin/../lib/gcc/arm-none-eabi/9.3.1/../../../../arm-none-eabi/lib/thumb/v7e-m+fp/hard\libg_nano.a(lib_a-nano-mallocr.o)
 .text          0x00000000        0x0 c:/program files (x86)/embitz/2.30/share/armgcc/bin/../lib/gcc/arm-none-eabi/9.3.1/../../../../arm-none-eabi/lib/thumb/v7e-m+fp/hard\libg_nano.a(lib_a-sbrkr.o)
 .data          0x00000000        0x0 c:/program files (x86)/embitz/2.30/share/armgcc/bin/../lib/gcc/arm-none-eabi/9.3.1/../../../../arm-none-eabi/lib/thumb/v7e-m+fp/hard\libg_nano.a(lib_a-sbrkr.o)
 .bss           0x00000000        0x0 c:/program files (x86)/embitz/2.30/share/armgcc/bin/../lib/gcc/arm-none-eabi/9.3.1/../../../../arm-none-eabi/lib/thumb/v7e-m+fp/hard\libg_nano.a(lib_a-sbrkr.o)
 .text          0x00000000        0x0 c:/program files (x86)/embitz/2.30/share/armgcc/bin/../lib/gcc/arm-none-eabi/9.3.1/../../../../arm-none-eabi/lib/thumb/v7e-m+fp/hard\libg_nano.a(lib_a-mlock.o)
 .data          0x00000000        0x0 c:/program files (x86)/embitz/2.30/share/armgcc/bin/../lib/gcc/arm-none-eabi/9.3.1/../../../../arm-none-eabi/lib/thumb/v7e-m+fp/hard\libg_nano.a(lib_a-mlock.o)
 .bss           0x00000000        0x0 c:/program files (x86)/embitz/2.30/share/armgcc/bin/../lib/gcc/arm-none-eabi/9.3.1/../../../../arm-none-eabi/lib/thumb/v7e-m+fp/hard\libg_nano.a(lib_a-mlock.o)
 .text          0x00000000        0x0 c:/program files (x86)/embitz/2.30/share/armgcc/bin/../lib/gcc/arm-none-eabi/9.3.1/../../../../arm-none-eabi/lib/thumb/v7e-m+fp/hard\libg_nano.a(lib_a-reent.o)
 .data          0x00000000        0x0 c:/program files (x86)/embitz/2.30/share/armgcc/bin/../lib/gcc/arm-none-eabi/9.3.1/../../../../arm-none-eabi/lib/thumb/v7e-m+fp/hard\libg_nano.a(lib_a-reent.o)
 .bss           0x00000000        0x0 c:/program files (x86)/embitz/2.30/share/armgcc/bin/../lib/gcc/arm-none-eabi/9.3.1/../../../../arm-none-eabi/lib/thumb/v7e-m+fp/hard\libg_nano.a(lib_a-reent.o)
 .text.cleanup_glue
                0x00000000       0x1a c:/program files (x86)/embitz/2.30/share/armgcc/bin/../lib/gcc/arm-none-eabi/9.3.1/../../../../arm-none-eabi/lib/thumb/v7e-m+fp/hard\libg_nano.a(lib_a-reent.o)
 .text._reclaim_reent
                0x00000000       0xb8 c:/program files (x86)/embitz/2.30/share/armgcc/bin/../lib/gcc/arm-none-eabi/9.3.1/../../../../arm-none-eabi/lib/thumb/v7e-m+fp/hard\libg_nano.a(lib_a-reent.o)
 .text          0x00000000        0x0 c:/program files (x86)/embitz/2.30/share/armgcc/bin/../lib/gcc/arm-none-eabi/9.3.1/../../../../arm-none-eabi/lib/thumb/v7e-m+fp/hard\libg_nano.a(lib_a-lock.o)
 .data          0x00000000        0x0 c:/program files (x86)/embitz/2.30/share/armgcc/bin/../lib/gcc/arm-none-eabi/9.3.1/../../../../arm-none-eabi/lib/thumb/v7e-m+fp/hard\libg_nano.a(lib_a-lock.o)
 .bss           0x00000000        0x0 c:/program files (x86)/embitz/2.30/share/armgcc/bin/../lib/gcc/arm-none-eabi/9.3.1/../../../../arm-none-eabi/lib/thumb/v7e-m+fp/hard\libg_nano.a(lib_a-lock.o)
 .text.__retarget_lock_init
                0x00000000        0x2 c:/program files (x86)/embitz/2.30/share/armgcc/bin/../lib/gcc/arm-none-eabi/9.3.1/../../../../arm-none-eabi/lib/thumb/v7e-m+fp/hard\libg_nano.a(lib_a-lock.o)
 .text.__retarget_lock_init_recursive
                0x00000000        0x2 c:/program files (x86)/embitz/2.30/share/armgcc/bin/../lib/gcc/arm-none-eabi/9.3.1/../../../../arm-none-eabi/lib/thumb/v7e-m+fp/hard\libg_nano.a(lib_a-lock.o)
 .text.__retarget_lock_close
                0x00000000        0x2 c:/program files (x86)/embitz/2.30/share/armgcc/bin/../lib/gcc/arm-none-eabi/9.3.1/../../../../arm-none-eabi/lib/thumb/v7e-m+fp/hard\libg_nano.a(lib_a-lock.o)
 .text.__retarget_lock_close_recursive
                0x00000000        0x2 c:/program files (x86)/embitz/2.30/share/armgcc/bin/../lib/gcc/arm-none-eabi/9.3.1/../../../../arm-none-eabi/lib/thumb/v7e-m+fp/hard\libg_nano.a(lib_a-lock.o)
 .text.__retarget_lock_acquire
                0x00000000        0x2 c:/program files (x86)/embitz/2.30/share/armgcc/bin/../lib/gcc/arm-none-eabi/9.3.1/../../../../arm-none-eabi/lib/thumb/v7e-m+fp/hard\libg_nano.a(lib_a-lock.o)
 .text.__retarget_lock_try_acquire
                0x00000000        0x4 c:/program files (x86)/embitz/2.30/share/armgcc/bin/../lib/gcc/arm-none-eabi/9.3.1/../../../../arm-none-eabi/lib/thumb/v7e-m+fp/hard\libg_nano.a(lib_a-lock.o)
 .text.__retarget_lock_try_acquire_recursive
                0x00000000        0x4 c:/program files (x86)/embitz/2.30/share/armgcc/bin/../lib/gcc/arm-none-eabi/9.3.1/../../../../arm-none-eabi/lib/thumb/v7e-m+fp/hard\libg_nano.a(lib_a-lock.o)
 .text.__retarget_lock_release
                0x00000000        0x2 c:/program files (x86)/embitz/2.30/share/armgcc/bin/../lib/gcc/arm-none-eabi/9.3.1/../../../../arm-none-eabi/lib/thumb/v7e-m+fp/hard\libg_nano.a(lib_a-lock.o)
 .text          0x00000000        0x0 c:/program files (x86)/embitz/2.30/share/armgcc/bin/../lib/gcc/arm-none-eabi/9.3.1/../../../../arm-none-eabi/lib/thumb/v7e-m+fp/hard\libnosys.a(sbrk.o)
 .data          0x00000000        0x0 c:/program files (x86)/embitz/2.30/share/armgcc/bin/../lib/gcc/arm-none-eabi/9.3.1/../../../../arm-none-eabi/lib/thumb/v7e-m+fp/hard\libnosys.a(sbrk.o)
 .bss           0x00000000        0x0 c:/program files (x86)/embitz/2.30/share/armgcc/bin/../lib/gcc/arm-none-eabi/9.3.1/../../../../arm-none-eabi/lib/thumb/v7e-m+fp/hard\libnosys.a(sbrk.o)
 .text          0x00000000        0x0 c:/program files (x86)/embitz/2.30/share/armgcc/bin/../lib/gcc/arm-none-eabi/9.3.1/../../../../arm-none-eabi/lib/thumb/v7e-m+fp/hard\libnosys.a(_exit.o)
 .data          0x00000000        0x0 c:/program files (x86)/embitz/2.30/share/armgcc/bin/../lib/gcc/arm-none-eabi/9.3.1/../../../../arm-none-eabi/lib/thumb/v7e-m+fp/hard\libnosys.a(_exit.o)
 .bss           0x00000000        0x0 c:/program files (x86)/embitz/2.30/share/armgcc/bin/../lib/gcc/arm-none-eabi/9.3.1/../../../../arm-none-eabi/lib/thumb/v7e-m+fp/hard\libnosys.a(_exit.o)
 .text._exit    0x00000000        0x4 c:/program files (x86)/embitz/2.30/share/armgcc/bin/../lib/gcc/arm-none-eabi/9.3.1/../../../../arm-none-eabi/lib/thumb/v7e-m+fp/hard\libnosys.a(_exit.o)
 .debug_frame   0x00000000       0x20 c:/program files (x86)/embitz/2.30/share/armgcc/bin/../lib/gcc/arm-none-eabi/9.3.1/../../../../arm-none-eabi/lib/thumb/v7e-m+fp/hard\libnosys.a(_exit.o)
 .ARM.attributes
                0x00000000       0x34 c:/program files (x86)/embitz/2.30/share/armgcc/bin/../lib/gcc/arm-none-eabi/9.3.1/../../../../arm-none-eabi/lib/thumb/v7e-m+fp/hard\libnosys.a(_exit.o)
 .text          0x00000000        0x0 c:/program files (x86)/embitz/2.30/share/armgcc/bin/../lib/gcc/arm-none-eabi/9.3.1/thumb/v7e-m+fp/hard/crtend.o
 .data          0x00000000        0x0 c:/program files (x86)/embitz/2.30/share/armgcc/bin/../lib/gcc/arm-none-eabi/9.3.1/thumb/v7e-m+fp/hard/crtend.o
 .bss           0x00000000        0x0 c:/program files (x86)/embitz/2.30/share/armgcc/bin/../lib/gcc/arm-none-eabi/9.3.1/thumb/v7e-m+fp/hard/crtend.o
 .eh_frame      0x00000000        0x4 c:/program files (x86)/embitz/2.30/share/armgcc/bin/../lib/gcc/arm-none-eabi/9.3.1/thumb/v7e-m+fp/hard/crtend.o
 .ARM.attributes
                0x00000000       0x32 c:/program files (x86)/embitz/2.30/share/armgcc/bin/../lib/gcc/arm-none-eabi/9.3.1/thumb/v7e-m+fp/hard/crtend.o
 .text          0x00000000        0x0 c:/program files (x86)/embitz/2.30/share/armgcc/bin/../lib/gcc/arm-none-eabi/9.3.1/thumb/v7e-m+fp/hard/crtn.o
 .data          0x00000000        0x0 c:/program files (x86)/embitz/2.30/share/armgcc/bin/../lib/gcc/arm-none-eabi/9.3.1/thumb/v7e-m+fp/hard/crtn.o
 .bss           0x00000000        0x0 c:/program files (x86)/embitz/2.30/share/armgcc/bin/../lib/gcc/arm-none-eabi/9.3.1/thumb/v7e-m+fp/hard/crtn.o

Memory Configuration

Name             Origin             Length             Attributes
FLASH            0x08000000         0x00040000         xr
RAM              0x20000000         0x00010000         xrw
*default*        0x00000000         0xffffffff

Linker script and memory map

LOAD c:/program files (x86)/embitz/2.30/share/armgcc/bin/../lib/gcc/arm-none-eabi/9.3.1/thumb/v7e-m+fp/hard/crti.o
LOAD c:/program files (x86)/embitz/2.30/share/armgcc/bin/../lib/gcc/arm-none-eabi/9.3.1/thumb/v7e-m+fp/hard/crtbegin.o
LOAD c:/program files (x86)/embitz/2.30/share/armgcc/bin/../lib/gcc/arm-none-eabi/9.3.1/../../../../arm-none-eabi/lib/thumb/v7e-m+fp/hard/crt0.o
                0x00000000                __HEAP_SIZE = 0x0
                0x00000100                __STACK_SIZE = 0x100
                0x00000000                _Min_Heap_Size = __HEAP_SIZE
                0x00000100                _Min_Stack_Size = __STACK_SIZE
                0x20010000                _estack = (ORIGIN (RAM) + LENGTH (RAM))

.isr_vector     0x20000000      0x194
                0x20000000                . = ALIGN (0x4)
 *(.isr_vector)
 .isr_vector    0x20000000      0x194 obj\debugram\src\startup_stm32f401xc.o
                0x20000000                g_pfnVectors
                0x20000194                . = ALIGN (0x4)

.text           0x20000194      0xf5c
                0x20000194                . = ALIGN (0x4)
 *(.text)
 .text          0x20000194       0x40 c:/program files (x86)/embitz/2.30/share/armgcc/bin/../lib/gcc/arm-none-eabi/9.3.1/thumb/v7e-m+fp/hard/crtbegin.o
 *(.text*)
 .text.Reset_Handler
                0x200001d4       0x4c obj\debugram\src\startup_stm32f401xc.o
                0x200001d4                Reset_Handler
 .text.Default_Handler
                0x20000220        0x2 obj\debugram\src\startup_stm32f401xc.o
                0x20000220                RTC_Alarm_IRQHandler
                0x20000220                EXTI2_IRQHandler
                0x20000220                DebugMon_Handler
                0x20000220                SPI4_IRQHandler
                0x20000220                TIM1_CC_IRQHandler
                0x20000220                DMA2_Stream5_IRQHandler
                0x20000220                HardFault_Handler
                0x20000220                DMA1_Stream5_IRQHandler
                0x20000220                PVD_IRQHandler
                0x20000220                SDIO_IRQHandler
                0x20000220                TAMP_STAMP_IRQHandler
                0x20000220                PendSV_Handler
                0x20000220                NMI_Handler
                0x20000220                EXTI3_IRQHandler
                0x20000220                TIM1_UP_TIM10_IRQHandler
                0x20000220                I2C3_ER_IRQHandler
                0x20000220                EXTI0_IRQHandler
                0x20000220                I2C2_EV_IRQHandler
                0x20000220                DMA1_Stream2_IRQHandler
                0x20000220                FPU_IRQHandler
                0x20000220                UsageFault_Handler
                0x20000220                DMA2_Stream2_IRQHandler
                0x20000220                SPI1_IRQHandler
                0x20000220                TIM1_BRK_TIM9_IRQHandler
                0x20000220                DMA2_Stream3_IRQHandler
                0x20000220                USART6_IRQHandler
                0x20000220                DMA2_Stream0_IRQHandler
                0x20000220                TIM4_IRQHandler
                0x20000220                I2C1_EV_IRQHandler
                0x20000220                DMA1_Stream6_IRQHandler
                0x20000220                DMA1_Stream1_IRQHandler
                0x20000220                TIM3_IRQHandler
                0x20000220                RCC_IRQHandler
                0x20000220                Default_Handler
                0x20000220                EXTI15_10_IRQHandler
                0x20000220                ADC_IRQHandler
                0x20000220                DMA1_Stream7_IRQHandler
                0x20000220                TIM5_IRQHandler
                0x20000220                DMA2_Stream7_IRQHandler
                0x20000220                I2C3_EV_IRQHandler
                0x20000220                EXTI9_5_IRQHandler
                0x20000220                RTC_WKUP_IRQHandler
                0x20000220                SPI2_IRQHandler
                0x20000220                MemManage_Handler
                0x20000220                DMA1_Stream0_IRQHandler
                0x20000220                SVC_Handler
                0x20000220                EXTI4_IRQHandler
                0x20000220                WWDG_IRQHandler
                0x20000220                TIM2_IRQHandler
                0x20000220                OTG_FS_WKUP_IRQHandler
                0x20000220                TIM1_TRG_COM_TIM11_IRQHandler
                0x20000220                EXTI1_IRQHandler
                0x20000220                USART2_IRQHandler
                0x20000220                I2C2_ER_IRQHandler
                0x20000220                DMA2_Stream1_IRQHandler
                0x20000220                FLASH_IRQHandler
                0x20000220                DMA2_Stream4_IRQHandler
                0x20000220                BusFault_Handler
                0x20000220                OTG_FS_IRQHandler
                0x20000220                SPI3_IRQHandler
                0x20000220                DMA1_Stream4_IRQHandler
                0x20000220                I2C1_ER_IRQHandler
                0x20000220                DMA2_Stream6_IRQHandler
                0x20000220                DMA1_Stream3_IRQHandler
 .text.USART1_IRQHandler
                0x20000222        0xe obj\debugram\external\modbus\ascii\modbus_ascii.o
                0x20000222                USART1_IRQHandler
 .text.ModBus_Init
                0x20000230       0x80 obj\debugram\external\modbus\ascii\modbus_ascii.o
                0x20000230                ModBus_Init
 .text.ModBus_ClearMsgs
                0x200002b0       0x60 obj\debugram\external\modbus\ascii\modbus_ascii.o
                0x200002b0                ModBus_ClearMsgs
 .text.CalcRCCClocks
                0x20000310      0x134 obj\debugram\fil_lib\src\rcc.o
                0x20000310                CalcRCCClocks
 .text.SysTick_Handler
                0x20000444       0x1c obj\debugram\fil_lib\src\tim.o
                0x20000444                SysTick_Handler
 .text.CalcTimFrequency
                0x20000460       0x74 obj\debugram\fil_lib\src\tim.o
                0x20000460                CalcTimFrequency
 .text.CalcTimClockSourse
                0x200004d4       0x8c obj\debugram\fil_lib\src\tim.o
                0x200004d4                CalcTimClockSourse
 .text.__NVIC_EnableIRQ
                0x20000560       0x3c obj\debugram\src\main.o
 .text.main     0x2000059c      0x8c0 obj\debugram\src\main.o
                0x2000059c                main
 .text.SystemInit
                0x20000e5c       0x6c obj\debugram\src\system_stm32f4xx.o
                0x20000e5c                SystemInit
 .text.SetSysClock
                0x20000ec8       0xf4 obj\debugram\src\system_stm32f4xx.o
 .text.malloc   0x20000fbc       0x10 c:/program files (x86)/embitz/2.30/share/armgcc/bin/../lib/gcc/arm-none-eabi/9.3.1/../../../../arm-none-eabi/lib/thumb/v7e-m+fp/hard\libg_nano.a(lib_a-malloc.o)
                0x20000fbc                malloc
 .text._malloc_r
                0x20000fcc       0xb4 c:/program files (x86)/embitz/2.30/share/armgcc/bin/../lib/gcc/arm-none-eabi/9.3.1/../../../../arm-none-eabi/lib/thumb/v7e-m+fp/hard\libg_nano.a(lib_a-nano-mallocr.o)
                0x20000fcc                _malloc_r
 .text._sbrk_r  0x20001080       0x20 c:/program files (x86)/embitz/2.30/share/armgcc/bin/../lib/gcc/arm-none-eabi/9.3.1/../../../../arm-none-eabi/lib/thumb/v7e-m+fp/hard\libg_nano.a(lib_a-sbrkr.o)
                0x20001080                _sbrk_r
 .text.__malloc_lock
                0x200010a0        0xc c:/program files (x86)/embitz/2.30/share/armgcc/bin/../lib/gcc/arm-none-eabi/9.3.1/../../../../arm-none-eabi/lib/thumb/v7e-m+fp/hard\libg_nano.a(lib_a-mlock.o)
                0x200010a0                __malloc_lock
 .text.__malloc_unlock
                0x200010ac        0xc c:/program files (x86)/embitz/2.30/share/armgcc/bin/../lib/gcc/arm-none-eabi/9.3.1/../../../../arm-none-eabi/lib/thumb/v7e-m+fp/hard\libg_nano.a(lib_a-mlock.o)
                0x200010ac                __malloc_unlock
 .text.__retarget_lock_acquire_recursive
                0x200010b8        0x2 c:/program files (x86)/embitz/2.30/share/armgcc/bin/../lib/gcc/arm-none-eabi/9.3.1/../../../../arm-none-eabi/lib/thumb/v7e-m+fp/hard\libg_nano.a(lib_a-lock.o)
                0x200010b8                __retarget_lock_acquire_recursive
 .text.__retarget_lock_release_recursive
                0x200010ba        0x2 c:/program files (x86)/embitz/2.30/share/armgcc/bin/../lib/gcc/arm-none-eabi/9.3.1/../../../../arm-none-eabi/lib/thumb/v7e-m+fp/hard\libg_nano.a(lib_a-lock.o)
                0x200010ba                __retarget_lock_release_recursive
 .text._sbrk    0x200010bc       0x1c c:/program files (x86)/embitz/2.30/share/armgcc/bin/../lib/gcc/arm-none-eabi/9.3.1/../../../../arm-none-eabi/lib/thumb/v7e-m+fp/hard\libnosys.a(sbrk.o)
                0x200010bc                _sbrk
 *(.glue_7)
 .glue_7        0x200010d8        0x0 linker stubs
 *(.glue_7t)
 .glue_7t       0x200010d8        0x0 linker stubs
 *(.eh_frame)
 .eh_frame      0x200010d8        0x0 c:/program files (x86)/embitz/2.30/share/armgcc/bin/../lib/gcc/arm-none-eabi/9.3.1/thumb/v7e-m+fp/hard/crtbegin.o
 *(.init)
 .init          0x200010d8        0x4 c:/program files (x86)/embitz/2.30/share/armgcc/bin/../lib/gcc/arm-none-eabi/9.3.1/thumb/v7e-m+fp/hard/crti.o
                0x200010d8                _init
 .init          0x200010dc        0x8 c:/program files (x86)/embitz/2.30/share/armgcc/bin/../lib/gcc/arm-none-eabi/9.3.1/thumb/v7e-m+fp/hard/crtn.o
 *(.fini)
 .fini          0x200010e4        0x4 c:/program files (x86)/embitz/2.30/share/armgcc/bin/../lib/gcc/arm-none-eabi/9.3.1/thumb/v7e-m+fp/hard/crti.o
                0x200010e4                _fini
 .fini          0x200010e8        0x8 c:/program files (x86)/embitz/2.30/share/armgcc/bin/../lib/gcc/arm-none-eabi/9.3.1/thumb/v7e-m+fp/hard/crtn.o
                0x200010f0                . = ALIGN (0x4)
                0x200010f0                _etext = .

.vfp11_veneer   0x200010f0        0x0
 .vfp11_veneer  0x200010f0        0x0 linker stubs

.v4_bx          0x200010f0        0x0
 .v4_bx         0x200010f0        0x0 linker stubs

.iplt           0x200010f0        0x0
 .iplt          0x200010f0        0x0 c:/program files (x86)/embitz/2.30/share/armgcc/bin/../lib/gcc/arm-none-eabi/9.3.1/thumb/v7e-m+fp/hard/crtbegin.o

.rel.dyn        0x200010f0        0x0
 .rel.iplt      0x200010f0        0x0 c:/program files (x86)/embitz/2.30/share/armgcc/bin/../lib/gcc/arm-none-eabi/9.3.1/thumb/v7e-m+fp/hard/crtbegin.o

.rodata         0x200010f0        0x0
                0x200010f0                . = ALIGN (0x4)
 *(.rodata)
 *(.rodata*)
                0x200010f0                . = ALIGN (0x4)

.ARM.extab
 *(.ARM.extab* .gnu.linkonce.armextab.*)

.ARM            0x200010f0        0x0
                0x200010f0                __exidx_start = .
 *(.ARM.exidx*)
                0x200010f0                __exidx_end = .

.preinit_array  0x200010f0        0x0
                0x200010f0                PROVIDE (__preinit_array_start = .)
 *(.preinit_array*)
                0x200010f0                PROVIDE (__preinit_array_end = .)

.init_array     0x200010f0        0x4
                0x200010f0                PROVIDE (__init_array_start = .)
 *(SORT_BY_NAME(.init_array.*))
 *(.init_array*)
 .init_array    0x200010f0        0x4 c:/program files (x86)/embitz/2.30/share/armgcc/bin/../lib/gcc/arm-none-eabi/9.3.1/thumb/v7e-m+fp/hard/crtbegin.o
                0x200010f4                PROVIDE (__init_array_end = .)

.fini_array     0x200010f4        0x4
                [!provide]                PROVIDE (__fini_array_start = .)
 *(SORT_BY_NAME(.fini_array.*))
 *(.fini_array*)
 .fini_array    0x200010f4        0x4 c:/program files (x86)/embitz/2.30/share/armgcc/bin/../lib/gcc/arm-none-eabi/9.3.1/thumb/v7e-m+fp/hard/crtbegin.o
                [!provide]                PROVIDE (__fini_array_end = .)
                0x200010f8                _sidata = LOADADDR (.data)

.data           0x200010f8       0x74
                0x200010f8                . = ALIGN (0x4)
                0x200010f8                _sdata = .
 *(.data)
 *(.data*)
 .data.PrescalerTable
                0x200010f8       0x10 obj\debugram\fil_lib\src\rcc.o
 .data._impure_ptr
                0x20001108        0x4 c:/program files (x86)/embitz/2.30/share/armgcc/bin/../lib/gcc/arm-none-eabi/9.3.1/../../../../arm-none-eabi/lib/thumb/v7e-m+fp/hard\libg_nano.a(lib_a-impure.o)
                0x20001108                _impure_ptr
 .data.impure_data
                0x2000110c       0x60 c:/program files (x86)/embitz/2.30/share/armgcc/bin/../lib/gcc/arm-none-eabi/9.3.1/../../../../arm-none-eabi/lib/thumb/v7e-m+fp/hard\libg_nano.a(lib_a-impure.o)
                0x2000116c                . = ALIGN (0x4)
                0x2000116c                _edata = .

.igot.plt       0x2000116c        0x0
 .igot.plt      0x2000116c        0x0 c:/program files (x86)/embitz/2.30/share/armgcc/bin/../lib/gcc/arm-none-eabi/9.3.1/thumb/v7e-m+fp/hard/crtbegin.o
                0x2000116c                . = ALIGN (0x4)

.bss            0x2000116c       0xc0
                0x2000116c                _sbss = .
                0x2000116c                __bss_start__ = _sbss
 *(.bss)
 .bss           0x2000116c       0x1c c:/program files (x86)/embitz/2.30/share/armgcc/bin/../lib/gcc/arm-none-eabi/9.3.1/thumb/v7e-m+fp/hard/crtbegin.o
 *(.bss*)
 .bss.globalTime
                0x20001188        0x4 obj\debugram\fil_lib\src\tim.o
                0x20001188                globalTime
 .bss.__malloc_free_list
                0x2000118c        0x4 c:/program files (x86)/embitz/2.30/share/armgcc/bin/../lib/gcc/arm-none-eabi/9.3.1/../../../../arm-none-eabi/lib/thumb/v7e-m+fp/hard\libg_nano.a(lib_a-nano-mallocr.o)
                0x2000118c                __malloc_free_list
 .bss.__malloc_sbrk_start
                0x20001190        0x4 c:/program files (x86)/embitz/2.30/share/armgcc/bin/../lib/gcc/arm-none-eabi/9.3.1/../../../../arm-none-eabi/lib/thumb/v7e-m+fp/hard\libg_nano.a(lib_a-nano-mallocr.o)
                0x20001190                __malloc_sbrk_start
 .bss.heap_end.5507
                0x20001194        0x4 c:/program files (x86)/embitz/2.30/share/armgcc/bin/../lib/gcc/arm-none-eabi/9.3.1/../../../../arm-none-eabi/lib/thumb/v7e-m+fp/hard\libnosys.a(sbrk.o)
 *(COMMON)
 COMMON         0x20001198       0x24 obj\debugram\external\modbus\ascii\modbus_ascii.o
                0x20001198                UART_FunctionIndexPointer
                0x2000119c                UART_CurrentIndexPointer
                0x200011a0                UART_LRCIndexPointer
                0x200011a4                UART_Buffer
                0x200011a8                UART_EndMsgPointer
                0x200011ac                UART_StartMsgPointer
                0x200011b0                Motor_Coord
                0x200011b4                EnginePWM
                0x200011b8                UART_AddressIndexPointer
 COMMON         0x200011bc       0x60 obj\debugram\external\mpu9250\mpu9250.o
                0x200011bc                TIMStatus
                0x200011dc                ADCStatus
                0x20001208                Clocks
 COMMON         0x2000121c        0x4 c:/program files (x86)/embitz/2.30/share/armgcc/bin/../lib/gcc/arm-none-eabi/9.3.1/../../../../arm-none-eabi/lib/thumb/v7e-m+fp/hard\libg_nano.a(lib_a-reent.o)
                0x2000121c                errno
 COMMON         0x20001220        0x9 c:/program files (x86)/embitz/2.30/share/armgcc/bin/../lib/gcc/arm-none-eabi/9.3.1/../../../../arm-none-eabi/lib/thumb/v7e-m+fp/hard\libg_nano.a(lib_a-lock.o)
                0x20001220                __lock___atexit_recursive_mutex
                0x20001221                __lock___arc4random_mutex
                0x20001222                __lock___env_recursive_mutex
                0x20001223                __lock___sinit_recursive_mutex
                0x20001224                __lock___malloc_recursive_mutex
                0x20001225                __lock___at_quick_exit_mutex
                0x20001226                __lock___dd_hash_mutex
                0x20001227                __lock___tz_mutex
                0x20001228                __lock___sfp_recursive_mutex
                0x2000122c                . = ALIGN (0x4)
 *fill*         0x20001229        0x3 
                0x2000122c                _ebss = .
                0x2000122c                __bss_end__ = _ebss

.heap           0x2000122c        0x0
                0x2000122c                . = ALIGN (0x4)
                0x2000122c                PROVIDE (end = .)
                [!provide]                PROVIDE (_end = .)
 *(.heap*)
                0x2000122c                . = (. + _Min_Heap_Size)
                0x2000122c                __HeapLimit = .
                0x2000122c                . = ALIGN (0x4)

.ARM.attributes
                0x00000000       0x30
 *(.ARM.attributes)
 .ARM.attributes
                0x00000000       0x1e c:/program files (x86)/embitz/2.30/share/armgcc/bin/../lib/gcc/arm-none-eabi/9.3.1/thumb/v7e-m+fp/hard/crti.o
 .ARM.attributes
                0x0000001e       0x34 c:/program files (x86)/embitz/2.30/share/armgcc/bin/../lib/gcc/arm-none-eabi/9.3.1/thumb/v7e-m+fp/hard/crtbegin.o
 .ARM.attributes
                0x00000052       0x21 obj\debugram\src\startup_stm32f401xc.o
 .ARM.attributes
                0x00000073       0x34 obj\debugram\external\modbus\ascii\modbus_ascii.o
 .ARM.attributes
                0x000000a7       0x39 obj\debugram\external\mpu9250\mpu9250.o
 .ARM.attributes
                0x000000e0       0x34 obj\debugram\fil_lib\src\rcc.o
 .ARM.attributes
                0x00000114       0x34 obj\debugram\fil_lib\src\tim.o
 .ARM.attributes
                0x00000148       0x34 obj\debugram\src\main.o
 .ARM.attributes
                0x0000017c       0x34 obj\debugram\src\system_stm32f4xx.o
 .ARM.attributes
                0x000001b0       0x32 c:/program files (x86)/embitz/2.30/share/armgcc/bin/../lib/gcc/arm-none-eabi/9.3.1/../../../../arm-none-eabi/lib/thumb/v7e-m+fp/hard\libg_nano.a(lib_a-impure.o)
 .ARM.attributes
                0x000001e2       0x34 c:/program files (x86)/embitz/2.30/share/armgcc/bin/../lib/gcc/arm-none-eabi/9.3.1/../../../../arm-none-eabi/lib/thumb/v7e-m+fp/hard\libg_nano.a(lib_a-malloc.o)
 .ARM.attributes
                0x00000216       0x34 c:/program files (x86)/embitz/2.30/share/armgcc/bin/../lib/gcc/arm-none-eabi/9.3.1/../../../../arm-none-eabi/lib/thumb/v7e-m+fp/hard\libg_nano.a(lib_a-nano-mallocr.o)
 .ARM.attributes
                0x0000024a       0x34 c:/program files (x86)/embitz/2.30/share/armgcc/bin/../lib/gcc/arm-none-eabi/9.3.1/../../../../arm-none-eabi/lib/thumb/v7e-m+fp/hard\libg_nano.a(lib_a-sbrkr.o)
 .ARM.attributes
                0x0000027e       0x34 c:/program files (x86)/embitz/2.30/share/armgcc/bin/../lib/gcc/arm-none-eabi/9.3.1/../../../../arm-none-eabi/lib/thumb/v7e-m+fp/hard\libg_nano.a(lib_a-mlock.o)
 .ARM.attributes
                0x000002b2       0x34 c:/program files (x86)/embitz/2.30/share/armgcc/bin/../lib/gcc/arm-none-eabi/9.3.1/../../../../arm-none-eabi/lib/thumb/v7e-m+fp/hard\libg_nano.a(lib_a-reent.o)
 .ARM.attributes
                0x000002e6       0x34 c:/program files (x86)/embitz/2.30/share/armgcc/bin/../lib/gcc/arm-none-eabi/9.3.1/../../../../arm-none-eabi/lib/thumb/v7e-m+fp/hard\libg_nano.a(lib_a-lock.o)
 .ARM.attributes
                0x0000031a       0x34 c:/program files (x86)/embitz/2.30/share/armgcc/bin/../lib/gcc/arm-none-eabi/9.3.1/../../../../arm-none-eabi/lib/thumb/v7e-m+fp/hard\libnosys.a(sbrk.o)
 .ARM.attributes
                0x0000034e       0x1e c:/program files (x86)/embitz/2.30/share/armgcc/bin/../lib/gcc/arm-none-eabi/9.3.1/thumb/v7e-m+fp/hard/crtn.o
                0x2000ff00                __StackLimit = (_estack - _Min_Stack_Size)
                0x00000001                ASSERT ((__StackLimit >= __HeapLimit), Region RAM overflowed with stack)
LOAD obj\debugram\src\startup_stm32f401xc.o
LOAD obj\debugram\external\matrix\matrix.o
LOAD obj\debugram\external\modbus\ascii\modbus_ascii.o
LOAD obj\debugram\external\mpu9250\mpu9250.o
LOAD obj\debugram\external\regulators\regulators.o
LOAD obj\debugram\external\ssd1306\fonts.o
LOAD obj\debugram\external\ssd1306\images.o
LOAD obj\debugram\external\ssd1306\ssd1306.o
LOAD obj\debugram\external\ssd1306\ssd1306_i2c.o
LOAD obj\debugram\fil_lib\src\adc.o
LOAD obj\debugram\fil_lib\src\dma.o
LOAD obj\debugram\fil_lib\src\exti.o
LOAD obj\debugram\fil_lib\src\i2c.o
LOAD obj\debugram\fil_lib\src\rcc.o
LOAD obj\debugram\fil_lib\src\rtc.o
LOAD obj\debugram\fil_lib\src\tim.o
LOAD obj\debugram\fil_lib\src\usart.o
LOAD obj\debugram\src\main.o
LOAD obj\debugram\dev\dev.o
LOAD obj\debugram\src\system_stm32f4xx.o
START GROUP
LOAD c:/program files (x86)/embitz/2.30/share/armgcc/bin/../lib/gcc/arm-none-eabi/9.3.1/thumb/v7e-m+fp/hard\libgcc.a
LOAD c:/program files (x86)/embitz/2.30/share/armgcc/bin/../lib/gcc/arm-none-eabi/9.3.1/../../../../arm-none-eabi/lib/thumb/v7e-m+fp/hard\libg_nano.a
LOAD c:/program files (x86)/embitz/2.30/share/armgcc/bin/../lib/gcc/arm-none-eabi/9.3.1/../../../../arm-none-eabi/lib/thumb/v7e-m+fp/hard\libc_nano.a
END GROUP
START GROUP
LOAD c:/program files (x86)/embitz/2.30/share/armgcc/bin/../lib/gcc/arm-none-eabi/9.3.1/thumb/v7e-m+fp/hard\libgcc.a
LOAD c:/program files (x86)/embitz/2.30/share/armgcc/bin/../lib/gcc/arm-none-eabi/9.3.1/../../../../arm-none-eabi/lib/thumb/v7e-m+fp/hard\libc_nano.a
LOAD c:/program files (x86)/embitz/2.30/share/armgcc/bin/../lib/gcc/arm-none-eabi/9.3.1/../../../../arm-none-eabi/lib/thumb/v7e-m+fp/hard\libnosys.a
END GROUP
START GROUP
LOAD c:/program files (x86)/embitz/2.30/share/armgcc/bin/../lib/gcc/arm-none-eabi/9.3.1/thumb/v7e-m+fp/hard\libgcc.a
LOAD c:/program files (x86)/embitz/2.30/share/armgcc/bin/../lib/gcc/arm-none-eabi/9.3.1/../../../../arm-none-eabi/lib/thumb/v7e-m+fp/hard\libc_nano.a
LOAD c:/program files (x86)/embitz/2.30/share/armgcc/bin/../lib/gcc/arm-none-eabi/9.3.1/../../../../arm-none-eabi/lib/thumb/v7e-m+fp/hard\libnosys.a
END GROUP
LOAD c:/program files (x86)/embitz/2.30/share/armgcc/bin/../lib/gcc/arm-none-eabi/9.3.1/thumb/v7e-m+fp/hard/crtend.o
LOAD c:/program files (x86)/embitz/2.30/share/armgcc/bin/../lib/gcc/arm-none-eabi/9.3.1/thumb/v7e-m+fp/hard/crtn.o
OUTPUT(bin\DebugRAM\SmallCar.elf elf32-littlearm)
LOAD linker stubs

.debug_line     0x00000000     0x16b5
 .debug_line    0x00000000       0x77 obj\debugram\src\startup_stm32f401xc.o
 .debug_line    0x00000077      0x394 obj\debugram\external\modbus\ascii\modbus_ascii.o
 .debug_line    0x0000040b      0x252 obj\debugram\external\mpu9250\mpu9250.o
 .debug_line    0x0000065d      0x35d obj\debugram\fil_lib\src\rcc.o
 .debug_line    0x000009ba      0x786 obj\debugram\fil_lib\src\tim.o
 .debug_line    0x00001140      0x2bc obj\debugram\src\main.o
 .debug_line    0x000013fc      0x2b9 obj\debugram\src\system_stm32f4xx.o

.debug_info     0x00000000     0x510a
 .debug_info    0x00000000       0x22 obj\debugram\src\startup_stm32f401xc.o
 .debug_info    0x00000022      0xb2e obj\debugram\external\modbus\ascii\modbus_ascii.o
 .debug_info    0x00000b50      0xc5b obj\debugram\external\mpu9250\mpu9250.o
 .debug_info    0x000017ab      0xe7d obj\debugram\fil_lib\src\rcc.o
 .debug_info    0x00002628     0x10dd obj\debugram\fil_lib\src\tim.o
 .debug_info    0x00003705     0x139d obj\debugram\src\main.o
 .debug_info    0x00004aa2      0x668 obj\debugram\src\system_stm32f4xx.o

.debug_abbrev   0x00000000      0xd80
 .debug_abbrev  0x00000000       0x12 obj\debugram\src\startup_stm32f401xc.o
 .debug_abbrev  0x00000012      0x2a6 obj\debugram\external\modbus\ascii\modbus_ascii.o
 .debug_abbrev  0x000002b8      0x1ed obj\debugram\external\mpu9250\mpu9250.o
 .debug_abbrev  0x000004a5      0x21c obj\debugram\fil_lib\src\rcc.o
 .debug_abbrev  0x000006c1      0x2a1 obj\debugram\fil_lib\src\tim.o
 .debug_abbrev  0x00000962      0x2a6 obj\debugram\src\main.o
 .debug_abbrev  0x00000c08      0x178 obj\debugram\src\system_stm32f4xx.o

.debug_aranges  0x00000000      0x190
 .debug_aranges
                0x00000000       0x28 obj\debugram\src\startup_stm32f401xc.o
 .debug_aranges
                0x00000028       0x50 obj\debugram\external\modbus\ascii\modbus_ascii.o
 .debug_aranges
                0x00000078       0x18 obj\debugram\external\mpu9250\mpu9250.o
 .debug_aranges
                0x00000090       0x20 obj\debugram\fil_lib\src\rcc.o
 .debug_aranges
                0x000000b0       0x88 obj\debugram\fil_lib\src\tim.o
 .debug_aranges
                0x00000138       0x28 obj\debugram\src\main.o
 .debug_aranges
                0x00000160       0x30 obj\debugram\src\system_stm32f4xx.o

.debug_str      0x00000000     0x1021
 .debug_str     0x00000000       0x59 obj\debugram\src\startup_stm32f401xc.o
 .debug_str     0x00000059      0x672 obj\debugram\external\modbus\ascii\modbus_ascii.o
                                0x70c (size before relaxing)
 .debug_str     0x000006cb      0x14b obj\debugram\external\mpu9250\mpu9250.o
                                0x7bd (size before relaxing)
 .debug_str     0x00000816      0x13c obj\debugram\fil_lib\src\rcc.o
                                0x8e3 (size before relaxing)
 .debug_str     0x00000952      0x1e1 obj\debugram\fil_lib\src\tim.o
                                0x9d6 (size before relaxing)
 .debug_str     0x00000b33      0x3df obj\debugram\src\main.o
                                0xd41 (size before relaxing)
 .debug_str     0x00000f12      0x10f obj\debugram\src\system_stm32f4xx.o
                                0x403 (size before relaxing)

.debug_ranges   0x00000000      0x120
 .debug_ranges  0x00000000       0x20 obj\debugram\src\startup_stm32f401xc.o
 .debug_ranges  0x00000020       0x40 obj\debugram\external\modbus\ascii\modbus_ascii.o
 .debug_ranges  0x00000060       0x10 obj\debugram\fil_lib\src\rcc.o
 .debug_ranges  0x00000070       0x78 obj\debugram\fil_lib\src\tim.o
 .debug_ranges  0x000000e8       0x18 obj\debugram\src\main.o
 .debug_ranges  0x00000100       0x20 obj\debugram\src\system_stm32f4xx.o

.comment        0x00000000       0x4c
 .comment       0x00000000       0x4c obj\debugram\external\modbus\ascii\modbus_ascii.o
                                 0x4d (size before relaxing)
 .comment       0x0000004c       0x4d obj\debugram\external\mpu9250\mpu9250.o
 .comment       0x0000004c       0x4d obj\debugram\fil_lib\src\rcc.o
 .comment       0x0000004c       0x4d obj\debugram\fil_lib\src\tim.o
 .comment       0x0000004c       0x4d obj\debugram\src\main.o
 .comment       0x0000004c       0x4d obj\debugram\src\system_stm32f4xx.o

.debug_frame    0x00000000      0x5d8
 .debug_frame   0x00000000       0xf4 obj\debugram\external\modbus\ascii\modbus_ascii.o
 .debug_frame   0x000000f4       0x30 obj\debugram\fil_lib\src\rcc.o
 .debug_frame   0x00000124      0x1fc obj\debugram\fil_lib\src\tim.o
 .debug_frame   0x00000320       0x54 obj\debugram\src\main.o
 .debug_frame   0x00000374       0x7c obj\debugram\src\system_stm32f4xx.o
 .debug_frame   0x000003f0       0x30 c:/program files (x86)/embitz/2.30/share/armgcc/bin/../lib/gcc/arm-none-eabi/9.3.1/../../../../arm-none-eabi/lib/thumb/v7e-m+fp/hard\libg_nano.a(lib_a-malloc.o)
 .debug_frame   0x00000420       0x30 c:/program files (x86)/embitz/2.30/share/armgcc/bin/../lib/gcc/arm-none-eabi/9.3.1/../../../../arm-none-eabi/lib/thumb/v7e-m+fp/hard\libg_nano.a(lib_a-nano-mallocr.o)
 .debug_frame   0x00000450       0x2c c:/program files (x86)/embitz/2.30/share/armgcc/bin/../lib/gcc/arm-none-eabi/9.3.1/../../../../arm-none-eabi/lib/thumb/v7e-m+fp/hard\libg_nano.a(lib_a-sbrkr.o)
 .debug_frame   0x0000047c       0x30 c:/program files (x86)/embitz/2.30/share/armgcc/bin/../lib/gcc/arm-none-eabi/9.3.1/../../../../arm-none-eabi/lib/thumb/v7e-m+fp/hard\libg_nano.a(lib_a-mlock.o)
 .debug_frame   0x000004ac       0x5c c:/program files (x86)/embitz/2.30/share/armgcc/bin/../lib/gcc/arm-none-eabi/9.3.1/../../../../arm-none-eabi/lib/thumb/v7e-m+fp/hard\libg_nano.a(lib_a-reent.o)
 .debug_frame   0x00000508       0xb0 c:/program files (x86)/embitz/2.30/share/armgcc/bin/../lib/gcc/arm-none-eabi/9.3.1/../../../../arm-none-eabi/lib/thumb/v7e-m+fp/hard\libg_nano.a(lib_a-lock.o)
 .debug_frame   0x000005b8       0x20 c:/program files (x86)/embitz/2.30/share/armgcc/bin/../lib/gcc/arm-none-eabi/9.3.1/../../../../arm-none-eabi/lib/thumb/v7e-m+fp/hard\libnosys.a(sbrk.o)
