Archive member included to satisfy reference by file (symbol)

c:/program files (x86)/embitz/2.30/share/armgcc/bin/../lib/gcc/arm-none-eabi/9.3.1/../../../../arm-none-eabi/lib/thumb/v7e-m+fp/hard\libm.a(lib_a-wf_pow.o)
                              obj\debug\src\functions.o (powf)
c:/program files (x86)/embitz/2.30/share/armgcc/bin/../lib/gcc/arm-none-eabi/9.3.1/../../../../arm-none-eabi/lib/thumb/v7e-m+fp/hard\libm.a(lib_a-ef_pow.o)
                              c:/program files (x86)/embitz/2.30/share/armgcc/bin/../lib/gcc/arm-none-eabi/9.3.1/../../../../arm-none-eabi/lib/thumb/v7e-m+fp/hard\libm.a(lib_a-wf_pow.o) (__ieee754_powf)
c:/program files (x86)/embitz/2.30/share/armgcc/bin/../lib/gcc/arm-none-eabi/9.3.1/../../../../arm-none-eabi/lib/thumb/v7e-m+fp/hard\libm.a(lib_a-ef_sqrt.o)
                              c:/program files (x86)/embitz/2.30/share/armgcc/bin/../lib/gcc/arm-none-eabi/9.3.1/../../../../arm-none-eabi/lib/thumb/v7e-m+fp/hard\libm.a(lib_a-ef_pow.o) (__ieee754_sqrtf)
c:/program files (x86)/embitz/2.30/share/armgcc/bin/../lib/gcc/arm-none-eabi/9.3.1/../../../../arm-none-eabi/lib/thumb/v7e-m+fp/hard\libm.a(lib_a-s_lib_ver.o)
                              c:/program files (x86)/embitz/2.30/share/armgcc/bin/../lib/gcc/arm-none-eabi/9.3.1/../../../../arm-none-eabi/lib/thumb/v7e-m+fp/hard\libm.a(lib_a-wf_pow.o) (__fdlib_version)
c:/program files (x86)/embitz/2.30/share/armgcc/bin/../lib/gcc/arm-none-eabi/9.3.1/../../../../arm-none-eabi/lib/thumb/v7e-m+fp/hard\libm.a(lib_a-sf_fabs.o)
                              c:/program files (x86)/embitz/2.30/share/armgcc/bin/../lib/gcc/arm-none-eabi/9.3.1/../../../../arm-none-eabi/lib/thumb/v7e-m+fp/hard\libm.a(lib_a-ef_pow.o) (fabsf)
c:/program files (x86)/embitz/2.30/share/armgcc/bin/../lib/gcc/arm-none-eabi/9.3.1/../../../../arm-none-eabi/lib/thumb/v7e-m+fp/hard\libm.a(lib_a-sf_finite.o)
                              c:/program files (x86)/embitz/2.30/share/armgcc/bin/../lib/gcc/arm-none-eabi/9.3.1/../../../../arm-none-eabi/lib/thumb/v7e-m+fp/hard\libm.a(lib_a-wf_pow.o) (finitef)
c:/program files (x86)/embitz/2.30/share/armgcc/bin/../lib/gcc/arm-none-eabi/9.3.1/../../../../arm-none-eabi/lib/thumb/v7e-m+fp/hard\libm.a(lib_a-sf_nan.o)
                              c:/program files (x86)/embitz/2.30/share/armgcc/bin/../lib/gcc/arm-none-eabi/9.3.1/../../../../arm-none-eabi/lib/thumb/v7e-m+fp/hard\libm.a(lib_a-ef_pow.o) (nanf)
c:/program files (x86)/embitz/2.30/share/armgcc/bin/../lib/gcc/arm-none-eabi/9.3.1/../../../../arm-none-eabi/lib/thumb/v7e-m+fp/hard\libm.a(lib_a-sf_rint.o)
                              c:/program files (x86)/embitz/2.30/share/armgcc/bin/../lib/gcc/arm-none-eabi/9.3.1/../../../../arm-none-eabi/lib/thumb/v7e-m+fp/hard\libm.a(lib_a-wf_pow.o) (rintf)
c:/program files (x86)/embitz/2.30/share/armgcc/bin/../lib/gcc/arm-none-eabi/9.3.1/../../../../arm-none-eabi/lib/thumb/v7e-m+fp/hard\libm.a(lib_a-sf_scalbn.o)
                              c:/program files (x86)/embitz/2.30/share/armgcc/bin/../lib/gcc/arm-none-eabi/9.3.1/../../../../arm-none-eabi/lib/thumb/v7e-m+fp/hard\libm.a(lib_a-ef_pow.o) (scalbnf)
c:/program files (x86)/embitz/2.30/share/armgcc/bin/../lib/gcc/arm-none-eabi/9.3.1/thumb/v7e-m+fp/hard\libgcc.a(_arm_muldf3.o)
                              obj\debug\external\colorsensor\tcs3472.o (__aeabi_dmul)
c:/program files (x86)/embitz/2.30/share/armgcc/bin/../lib/gcc/arm-none-eabi/9.3.1/thumb/v7e-m+fp/hard\libgcc.a(_arm_addsubdf3.o)
                              obj\debug\src\functions.o (__aeabi_dsub)
c:/program files (x86)/embitz/2.30/share/armgcc/bin/../lib/gcc/arm-none-eabi/9.3.1/thumb/v7e-m+fp/hard\libgcc.a(_arm_muldivdf3.o)
                              obj\debug\src\functions.o (__aeabi_ddiv)
c:/program files (x86)/embitz/2.30/share/armgcc/bin/../lib/gcc/arm-none-eabi/9.3.1/thumb/v7e-m+fp/hard\libgcc.a(_arm_cmpdf2.o)
                              obj\debug\src\functions.o (__aeabi_dcmplt)
c:/program files (x86)/embitz/2.30/share/armgcc/bin/../lib/gcc/arm-none-eabi/9.3.1/thumb/v7e-m+fp/hard\libgcc.a(_arm_fixdfsi.o)
                              obj\debug\src\functions.o (__aeabi_d2iz)
c:/program files (x86)/embitz/2.30/share/armgcc/bin/../lib/gcc/arm-none-eabi/9.3.1/thumb/v7e-m+fp/hard\libgcc.a(_arm_truncdfsf2.o)
                              obj\debug\external\colorsensor\tcs3472.o (__aeabi_d2f)
c:/program files (x86)/embitz/2.30/share/armgcc/bin/../lib/gcc/arm-none-eabi/9.3.1/../../../../arm-none-eabi/lib/thumb/v7e-m+fp/hard\libg_nano.a(lib_a-errno.o)
                              c:/program files (x86)/embitz/2.30/share/armgcc/bin/../lib/gcc/arm-none-eabi/9.3.1/../../../../arm-none-eabi/lib/thumb/v7e-m+fp/hard\libm.a(lib_a-wf_pow.o) (__errno)
c:/program files (x86)/embitz/2.30/share/armgcc/bin/../lib/gcc/arm-none-eabi/9.3.1/../../../../arm-none-eabi/lib/thumb/v7e-m+fp/hard\libg_nano.a(lib_a-exit.o)
                              c:/program files (x86)/embitz/2.30/share/armgcc/bin/../lib/gcc/arm-none-eabi/9.3.1/../../../../arm-none-eabi/lib/thumb/v7e-m+fp/hard/crt0.o (exit)
c:/program files (x86)/embitz/2.30/share/armgcc/bin/../lib/gcc/arm-none-eabi/9.3.1/../../../../arm-none-eabi/lib/thumb/v7e-m+fp/hard\libg_nano.a(lib_a-impure.o)
                              c:/program files (x86)/embitz/2.30/share/armgcc/bin/../lib/gcc/arm-none-eabi/9.3.1/../../../../arm-none-eabi/lib/thumb/v7e-m+fp/hard\libg_nano.a(lib_a-exit.o) (_global_impure_ptr)
c:/program files (x86)/embitz/2.30/share/armgcc/bin/../lib/gcc/arm-none-eabi/9.3.1/../../../../arm-none-eabi/lib/thumb/v7e-m+fp/hard\libg_nano.a(lib_a-init.o)
                              c:/program files (x86)/embitz/2.30/share/armgcc/bin/../lib/gcc/arm-none-eabi/9.3.1/../../../../arm-none-eabi/lib/thumb/v7e-m+fp/hard/crt0.o (__libc_init_array)
c:/program files (x86)/embitz/2.30/share/armgcc/bin/../lib/gcc/arm-none-eabi/9.3.1/../../../../arm-none-eabi/lib/thumb/v7e-m+fp/hard\libg_nano.a(lib_a-memset.o)
                              c:/program files (x86)/embitz/2.30/share/armgcc/bin/../lib/gcc/arm-none-eabi/9.3.1/../../../../arm-none-eabi/lib/thumb/v7e-m+fp/hard/crt0.o (memset)
c:/program files (x86)/embitz/2.30/share/armgcc/bin/../lib/gcc/arm-none-eabi/9.3.1/../../../../arm-none-eabi/lib/thumb/v7e-m+fp/hard\libg_nano.a(lib_a-strlen.o)
                              obj\debug\src\main.o (strlen)
c:/program files (x86)/embitz/2.30/share/armgcc/bin/../lib/gcc/arm-none-eabi/9.3.1/../../../../arm-none-eabi/lib/thumb/v7e-m+fp/hard\libnosys.a(_exit.o)
                              c:/program files (x86)/embitz/2.30/share/armgcc/bin/../lib/gcc/arm-none-eabi/9.3.1/../../../../arm-none-eabi/lib/thumb/v7e-m+fp/hard\libg_nano.a(lib_a-exit.o) (_exit)

Allocating common symbols
Common symbol       size              file

b                   0x2               obj\debug\src\main.o
I2CStatus           0xa               obj\debug\external\colorsensor\tcs3472.o
linS                0x8               obj\debug\src\functions.o
uglS                0x8               obj\debug\src\functions.o
g                   0x2               obj\debug\src\main.o
pregStruct          0x10              obj\debug\src\functions.o
iswall              0x1               obj\debug\src\functions.o
lens                0x4               obj\debug\src\functions.o
distance            0x4               obj\debug\src\functions.o
dist                0x8               obj\debug\src\main.o
TIMStatus           0x20              obj\debug\external\colorsensor\tcs3472.o
cubREGstruct        0x20              obj\debug\src\functions.o
myint               0x4               obj\debug\src\functions.o
rast                0xc               obj\debug\src\functions.o
TCS3472             0x28              obj\debug\external\colorsensor\tcs3472.o
sens                0x18              obj\debug\src\functions.o
ways                0x4               obj\debug\src\functions.o
PIDstruct           0x60              obj\debug\src\functions.o
EncoderData         0x4               obj\debug\src\functions.o
h                   0x4               obj\debug\src\main.o
speed               0x8               obj\debug\src\functions.o
ADCStatus           0x2c              obj\debug\external\colorsensor\tcs3472.o
RCH                 0x1               obj\debug\external\colorsensor\tcs3472.o
confirmK            0x1               obj\debug\src\functions.o
Tank_60x60          0x1fe             obj\debug\external\colorsensor\tcs3472.o
Clocks              0x14              obj\debug\external\colorsensor\tcs3472.o
JCH                 0x1               obj\debug\external\colorsensor\tcs3472.o

Discarded input sections

 .text          0x00000000        0x0 c:/program files (x86)/embitz/2.30/share/armgcc/bin/../lib/gcc/arm-none-eabi/9.3.1/thumb/v7e-m+fp/hard/crti.o
 .data          0x00000000        0x0 c:/program files (x86)/embitz/2.30/share/armgcc/bin/../lib/gcc/arm-none-eabi/9.3.1/thumb/v7e-m+fp/hard/crti.o
 .bss           0x00000000        0x0 c:/program files (x86)/embitz/2.30/share/armgcc/bin/../lib/gcc/arm-none-eabi/9.3.1/thumb/v7e-m+fp/hard/crti.o
 .data          0x00000000        0x4 c:/program files (x86)/embitz/2.30/share/armgcc/bin/../lib/gcc/arm-none-eabi/9.3.1/thumb/v7e-m+fp/hard/crtbegin.o
 .text          0x00000000       0x7c c:/program files (x86)/embitz/2.30/share/armgcc/bin/../lib/gcc/arm-none-eabi/9.3.1/../../../../arm-none-eabi/lib/thumb/v7e-m+fp/hard/crt0.o
 .data          0x00000000        0x0 c:/program files (x86)/embitz/2.30/share/armgcc/bin/../lib/gcc/arm-none-eabi/9.3.1/../../../../arm-none-eabi/lib/thumb/v7e-m+fp/hard/crt0.o
 .bss           0x00000000        0x0 c:/program files (x86)/embitz/2.30/share/armgcc/bin/../lib/gcc/arm-none-eabi/9.3.1/../../../../arm-none-eabi/lib/thumb/v7e-m+fp/hard/crt0.o
 .ARM.extab     0x00000000        0x0 c:/program files (x86)/embitz/2.30/share/armgcc/bin/../lib/gcc/arm-none-eabi/9.3.1/../../../../arm-none-eabi/lib/thumb/v7e-m+fp/hard/crt0.o
 .ARM.exidx     0x00000000       0x10 c:/program files (x86)/embitz/2.30/share/armgcc/bin/../lib/gcc/arm-none-eabi/9.3.1/../../../../arm-none-eabi/lib/thumb/v7e-m+fp/hard/crt0.o
 .ARM.attributes
                0x00000000       0x1c c:/program files (x86)/embitz/2.30/share/armgcc/bin/../lib/gcc/arm-none-eabi/9.3.1/../../../../arm-none-eabi/lib/thumb/v7e-m+fp/hard/crt0.o
 .text          0x00000000       0x14 obj\debug\src\startup_stm32f401xc.o
 .data          0x00000000        0x0 obj\debug\src\startup_stm32f401xc.o
 .bss           0x00000000        0x0 obj\debug\src\startup_stm32f401xc.o
 .text          0x00000000        0x0 obj\debug\external\colorsensor\tcs3472.o
 .data          0x00000000        0x0 obj\debug\external\colorsensor\tcs3472.o
 .bss           0x00000000        0x0 obj\debug\external\colorsensor\tcs3472.o
 .data.PrescalerTable
                0x00000000       0x10 obj\debug\external\colorsensor\tcs3472.o
 .text.TCS3472_CalculateLux
                0x00000000       0x6c obj\debug\external\colorsensor\tcs3472.o
 .text.TCS3472_CalculateColorTemperatureKelvin
                0x00000000      0x258 obj\debug\external\colorsensor\tcs3472.o
 .text.TCS3472_SetGain
                0x00000000       0x3c obj\debug\external\colorsensor\tcs3472.o
 .text.TCS3472_SetIntegrationTime
                0x00000000       0x3c obj\debug\external\colorsensor\tcs3472.o
 .text.TCS3472_SetWaitTime
                0x00000000       0x3c obj\debug\external\colorsensor\tcs3472.o
 .text          0x00000000        0x0 obj\debug\external\matrix\matrix.o
 .data          0x00000000        0x0 obj\debug\external\matrix\matrix.o
 .bss           0x00000000        0x0 obj\debug\external\matrix\matrix.o
 .debug_line    0x00000000        0x0 obj\debug\external\matrix\matrix.o
 .debug_str     0x00000000       0xf3 obj\debug\external\matrix\matrix.o
 .comment       0x00000000       0x4d obj\debug\external\matrix\matrix.o
 .ARM.attributes
                0x00000000       0x39 obj\debug\external\matrix\matrix.o
 .text          0x00000000        0x0 obj\debug\external\modbus\ascii\modbus_ascii.o
 .data          0x00000000        0x0 obj\debug\external\modbus\ascii\modbus_ascii.o
 .bss           0x00000000        0x0 obj\debug\external\modbus\ascii\modbus_ascii.o
 .debug_line    0x00000000        0x0 obj\debug\external\modbus\ascii\modbus_ascii.o
 .debug_str     0x00000000       0xff obj\debug\external\modbus\ascii\modbus_ascii.o
 .comment       0x00000000       0x4d obj\debug\external\modbus\ascii\modbus_ascii.o
 .ARM.attributes
                0x00000000       0x39 obj\debug\external\modbus\ascii\modbus_ascii.o
 .text          0x00000000        0x0 obj\debug\external\mpu9250\mpu9250.o
 .data          0x00000000        0x0 obj\debug\external\mpu9250\mpu9250.o
 .bss           0x00000000        0x0 obj\debug\external\mpu9250\mpu9250.o
 .data.PrescalerTable
                0x00000000       0x10 obj\debug\external\mpu9250\mpu9250.o
 .debug_info    0x00000000      0xd30 obj\debug\external\mpu9250\mpu9250.o
 .debug_abbrev  0x00000000      0x1f8 obj\debug\external\mpu9250\mpu9250.o
 .debug_aranges
                0x00000000       0x18 obj\debug\external\mpu9250\mpu9250.o
 .debug_line    0x00000000      0x24c obj\debug\external\mpu9250\mpu9250.o
 .debug_str     0x00000000      0x7ca obj\debug\external\mpu9250\mpu9250.o
 .comment       0x00000000       0x4d obj\debug\external\mpu9250\mpu9250.o
 .ARM.attributes
                0x00000000       0x39 obj\debug\external\mpu9250\mpu9250.o
 .text          0x00000000        0x0 obj\debug\external\regulators\regulators.o
 .data          0x00000000        0x0 obj\debug\external\regulators\regulators.o
 .bss           0x00000000        0x0 obj\debug\external\regulators\regulators.o
 .data.PrescalerTable
                0x00000000       0x10 obj\debug\external\regulators\regulators.o
 .debug_info    0x00000000      0xd30 obj\debug\external\regulators\regulators.o
 .debug_abbrev  0x00000000      0x1f8 obj\debug\external\regulators\regulators.o
 .debug_aranges
                0x00000000       0x18 obj\debug\external\regulators\regulators.o
 .debug_line    0x00000000      0x24c obj\debug\external\regulators\regulators.o
 .debug_str     0x00000000      0x7d0 obj\debug\external\regulators\regulators.o
 .comment       0x00000000       0x4d obj\debug\external\regulators\regulators.o
 .ARM.attributes
                0x00000000       0x39 obj\debug\external\regulators\regulators.o
 .text          0x00000000        0x0 obj\debug\external\ssd1306\fonts.o
 .data          0x00000000        0x0 obj\debug\external\ssd1306\fonts.o
 .bss           0x00000000        0x0 obj\debug\external\ssd1306\fonts.o
 .debug_info    0x00000000      0x9f7 obj\debug\external\ssd1306\fonts.o
 .debug_abbrev  0x00000000      0x1b8 obj\debug\external\ssd1306\fonts.o
 .debug_aranges
                0x00000000       0x18 obj\debug\external\ssd1306\fonts.o
 .debug_line    0x00000000      0x1a5 obj\debug\external\ssd1306\fonts.o
 .debug_str     0x00000000      0x611 obj\debug\external\ssd1306\fonts.o
 .comment       0x00000000       0x4d obj\debug\external\ssd1306\fonts.o
 .ARM.attributes
                0x00000000       0x39 obj\debug\external\ssd1306\fonts.o
 .text          0x00000000        0x0 obj\debug\external\ssd1306\images.o
 .data          0x00000000        0x0 obj\debug\external\ssd1306\images.o
 .bss           0x00000000        0x0 obj\debug\external\ssd1306\images.o
 .data.PrescalerTable
                0x00000000       0x10 obj\debug\external\ssd1306\images.o
 .data.logo_RCR_50x50
                0x00000000      0x15e obj\debug\external\ssd1306\images.o
 .data.logo_RCR_20x20
                0x00000000       0x3c obj\debug\external\ssd1306\images.o
 .data.logo_RCR_40x40
                0x00000000       0xc8 obj\debug\external\ssd1306\images.o
 .data.logo_DSTU_40x40
                0x00000000       0xc8 obj\debug\external\ssd1306\images.o
 .data.Sad_50x50
                0x00000000      0x15e obj\debug\external\ssd1306\images.o
 .data.Heart_50x50
                0x00000000      0x15e obj\debug\external\ssd1306\images.o
 .debug_info    0x00000000      0xd30 obj\debug\external\ssd1306\images.o
 .debug_abbrev  0x00000000      0x1f8 obj\debug\external\ssd1306\images.o
 .debug_aranges
                0x00000000       0x18 obj\debug\external\ssd1306\images.o
 .debug_line    0x00000000      0x25d obj\debug\external\ssd1306\images.o
 .debug_str     0x00000000      0x7c9 obj\debug\external\ssd1306\images.o
 .comment       0x00000000       0x4d obj\debug\external\ssd1306\images.o
 .ARM.attributes
                0x00000000       0x39 obj\debug\external\ssd1306\images.o
 .text          0x00000000        0x0 obj\debug\external\ssd1306\ssd1306.o
 .data          0x00000000        0x0 obj\debug\external\ssd1306\ssd1306.o
 .bss           0x00000000        0x0 obj\debug\external\ssd1306\ssd1306.o
 .data.PrescalerTable
                0x00000000       0x10 obj\debug\external\ssd1306\ssd1306.o
 .text.SSD1306_ToggleInvert
                0x00000000       0x54 obj\debug\external\ssd1306\ssd1306.o
 .text.SSD1306_DrawLine
                0x00000000      0x1f6 obj\debug\external\ssd1306\ssd1306.o
 .text.SSD1306_DrawRectangle
                0x00000000       0xd4 obj\debug\external\ssd1306\ssd1306.o
 .text.SSD1306_DrawFilledRectangle
                0x00000000       0x9a obj\debug\external\ssd1306\ssd1306.o
 .text.SSD1306_DrawTriangle
                0x00000000       0x62 obj\debug\external\ssd1306\ssd1306.o
 .text.SSD1306_DrawFilledTriangle
                0x00000000      0x184 obj\debug\external\ssd1306\ssd1306.o
 .text.SSD1306_DrawCircle
                0x00000000      0x1a8 obj\debug\external\ssd1306\ssd1306.o
 .text.SSD1306_DrawFilledCircle
                0x00000000      0x1b6 obj\debug\external\ssd1306\ssd1306.o
 .text.ssd1306_image
                0x00000000       0xfe obj\debug\external\ssd1306\ssd1306.o
 .text.SSD1306_ON
                0x00000000       0x30 obj\debug\external\ssd1306\ssd1306.o
 .text.SSD1306_OFF
                0x00000000       0x30 obj\debug\external\ssd1306\ssd1306.o
 .text          0x00000000        0x0 obj\debug\external\ssd1306\ssd1306_i2c.o
 .data          0x00000000        0x0 obj\debug\external\ssd1306\ssd1306_i2c.o
 .bss           0x00000000        0x0 obj\debug\external\ssd1306\ssd1306_i2c.o
 .data.PrescalerTable
                0x00000000       0x10 obj\debug\external\ssd1306\ssd1306_i2c.o
 .text          0x00000000        0x0 obj\debug\fil_lib\src\adc.o
 .data          0x00000000        0x0 obj\debug\fil_lib\src\adc.o
 .bss           0x00000000        0x0 obj\debug\fil_lib\src\adc.o
 .data.PrescalerTable
                0x00000000       0x10 obj\debug\fil_lib\src\adc.o
 .text          0x00000000        0x0 obj\debug\fil_lib\src\dma.o
 .data          0x00000000        0x0 obj\debug\fil_lib\src\dma.o
 .bss           0x00000000        0x0 obj\debug\fil_lib\src\dma.o
 .data.PrescalerTable
                0x00000000       0x10 obj\debug\fil_lib\src\dma.o
 .debug_info    0x00000000      0xd30 obj\debug\fil_lib\src\dma.o
 .debug_abbrev  0x00000000      0x1f8 obj\debug\fil_lib\src\dma.o
 .debug_aranges
                0x00000000       0x18 obj\debug\fil_lib\src\dma.o
 .debug_line    0x00000000      0x24c obj\debug\fil_lib\src\dma.o
 .debug_str     0x00000000      0x7c1 obj\debug\fil_lib\src\dma.o
 .comment       0x00000000       0x4d obj\debug\fil_lib\src\dma.o
 .ARM.attributes
                0x00000000       0x39 obj\debug\fil_lib\src\dma.o
 .text          0x00000000        0x0 obj\debug\fil_lib\src\exti.o
 .data          0x00000000        0x0 obj\debug\fil_lib\src\exti.o
 .bss           0x00000000        0x0 obj\debug\fil_lib\src\exti.o
 .data.PrescalerTable
                0x00000000       0x10 obj\debug\fil_lib\src\exti.o
 .debug_info    0x00000000      0xd30 obj\debug\fil_lib\src\exti.o
 .debug_abbrev  0x00000000      0x1f8 obj\debug\fil_lib\src\exti.o
 .debug_aranges
                0x00000000       0x18 obj\debug\fil_lib\src\exti.o
 .debug_line    0x00000000      0x24c obj\debug\fil_lib\src\exti.o
 .debug_str     0x00000000      0x7c2 obj\debug\fil_lib\src\exti.o
 .comment       0x00000000       0x4d obj\debug\fil_lib\src\exti.o
 .ARM.attributes
                0x00000000       0x39 obj\debug\fil_lib\src\exti.o
 .text          0x00000000        0x0 obj\debug\fil_lib\src\i2c.o
 .data          0x00000000        0x0 obj\debug\fil_lib\src\i2c.o
 .bss           0x00000000        0x0 obj\debug\fil_lib\src\i2c.o
 .data.PrescalerTable
                0x00000000       0x10 obj\debug\fil_lib\src\i2c.o
 .text.I2C_MemoryWriteMulriple
                0x00000000      0x160 obj\debug\fil_lib\src\i2c.o
 .text.I2C_SingleSend
                0x00000000       0x7c obj\debug\fil_lib\src\i2c.o
 .text.I2C_MultipleSend
                0x00000000       0x94 obj\debug\fil_lib\src\i2c.o
 .text.I2C_SingleRead
                0x00000000       0x44 obj\debug\fil_lib\src\i2c.o
 .text.I2C_MultipleRead
                0x00000000       0xc0 obj\debug\fil_lib\src\i2c.o
 .text.I2CFindDevices
                0x00000000      0x160 obj\debug\fil_lib\src\i2c.o
 .text          0x00000000        0x0 obj\debug\fil_lib\src\rcc.o
 .data          0x00000000        0x0 obj\debug\fil_lib\src\rcc.o
 .bss           0x00000000        0x0 obj\debug\fil_lib\src\rcc.o
 .text          0x00000000        0x0 obj\debug\fil_lib\src\rtc.o
 .data          0x00000000        0x0 obj\debug\fil_lib\src\rtc.o
 .bss           0x00000000        0x0 obj\debug\fil_lib\src\rtc.o
 .data.PrescalerTable
                0x00000000       0x10 obj\debug\fil_lib\src\rtc.o
 .debug_info    0x00000000      0xd30 obj\debug\fil_lib\src\rtc.o
 .debug_abbrev  0x00000000      0x1f8 obj\debug\fil_lib\src\rtc.o
 .debug_aranges
                0x00000000       0x18 obj\debug\fil_lib\src\rtc.o
 .debug_line    0x00000000      0x24c obj\debug\fil_lib\src\rtc.o
 .debug_str     0x00000000      0x7c1 obj\debug\fil_lib\src\rtc.o
 .comment       0x00000000       0x4d obj\debug\fil_lib\src\rtc.o
 .ARM.attributes
                0x00000000       0x39 obj\debug\fil_lib\src\rtc.o
 .text          0x00000000        0x0 obj\debug\fil_lib\src\tim.o
 .data          0x00000000        0x0 obj\debug\fil_lib\src\tim.o
 .bss           0x00000000        0x0 obj\debug\fil_lib\src\tim.o
 .data.PrescalerTable
                0x00000000       0x10 obj\debug\fil_lib\src\tim.o
 .text.TIM1_IRQHandler
                0x00000000       0x18 obj\debug\fil_lib\src\tim.o
 .text.delay_sec
                0x00000000       0x54 obj\debug\fil_lib\src\tim.o
 .text.CalcTimStatus
                0x00000000      0x200 obj\debug\fil_lib\src\tim.o
 .text.CalcTimPulseLength
                0x00000000      0x164 obj\debug\fil_lib\src\tim.o
 .text.CalcTimDuration
                0x00000000       0x40 obj\debug\fil_lib\src\tim.o
 .text          0x00000000        0x0 obj\debug\fil_lib\src\usart.o
 .data          0x00000000        0x0 obj\debug\fil_lib\src\usart.o
 .bss           0x00000000        0x0 obj\debug\fil_lib\src\usart.o
 .data.PrescalerTable
                0x00000000       0x10 obj\debug\fil_lib\src\usart.o
 .text.CalcUSARTBaudrate
                0x00000000       0x70 obj\debug\fil_lib\src\usart.o
 .debug_info    0x00000000      0xe74 obj\debug\fil_lib\src\usart.o
 .debug_abbrev  0x00000000      0x23c obj\debug\fil_lib\src\usart.o
 .debug_aranges
                0x00000000       0x20 obj\debug\fil_lib\src\usart.o
 .debug_ranges  0x00000000       0x10 obj\debug\fil_lib\src\usart.o
 .debug_line    0x00000000      0x2ac obj\debug\fil_lib\src\usart.o
 .debug_str     0x00000000      0x84c obj\debug\fil_lib\src\usart.o
 .comment       0x00000000       0x4d obj\debug\fil_lib\src\usart.o
 .debug_frame   0x00000000       0x34 obj\debug\fil_lib\src\usart.o
 .ARM.attributes
                0x00000000       0x34 obj\debug\fil_lib\src\usart.o
 .text          0x00000000        0x0 obj\debug\src\functions.o
 .data          0x00000000        0x0 obj\debug\src\functions.o
 .bss           0x00000000        0x0 obj\debug\src\functions.o
 .data.PrescalerTable
                0x00000000       0x10 obj\debug\src\functions.o
 .text.cubREGinit
                0x00000000       0x2c obj\debug\src\functions.o
 .text.cubeREG  0x00000000      0x164 obj\debug\src\functions.o
 .text.preg     0x00000000      0x1b4 obj\debug\src\functions.o
 .bss.wallerr   0x00000000        0x4 obj\debug\src\functions.o
 .text          0x00000000        0x0 obj\debug\src\main.o
 .data          0x00000000        0x0 obj\debug\src\main.o
 .bss           0x00000000        0x0 obj\debug\src\main.o
 .data.PrescalerTable
                0x00000000       0x10 obj\debug\src\main.o
 .rodata.Font16x26
                0x00000000     0x134c obj\debug\src\main.o
 .data.Font_16x26
                0x00000000        0x8 obj\debug\src\main.o
 .text.FONTS_GetStringSize
                0x00000000       0x3a obj\debug\src\main.o
 .bss.timeout   0x00000000        0x4 obj\debug\src\main.o
 .text.writeReg
                0x00000000       0x28 obj\debug\src\main.o
 .text          0x00000000        0x0 obj\debug\src\oled.o
 .data          0x00000000        0x0 obj\debug\src\oled.o
 .bss           0x00000000        0x0 obj\debug\src\oled.o
 .data.PrescalerTable
                0x00000000       0x10 obj\debug\src\oled.o
 .text.intstooled
                0x00000000      0x138 obj\debug\src\oled.o
 .text.draw     0x00000000       0x2c obj\debug\src\oled.o
 .text          0x00000000        0x0 obj\debug\dev\dev.o
 .data          0x00000000        0x0 obj\debug\dev\dev.o
 .bss           0x00000000        0x0 obj\debug\dev\dev.o
 .data.PrescalerTable
                0x00000000       0x10 obj\debug\dev\dev.o
 .debug_info    0x00000000      0xd30 obj\debug\dev\dev.o
 .debug_abbrev  0x00000000      0x1f8 obj\debug\dev\dev.o
 .debug_aranges
                0x00000000       0x18 obj\debug\dev\dev.o
 .debug_line    0x00000000      0x24c obj\debug\dev\dev.o
 .debug_str     0x00000000      0x7b9 obj\debug\dev\dev.o
 .comment       0x00000000       0x4d obj\debug\dev\dev.o
 .ARM.attributes
                0x00000000       0x39 obj\debug\dev\dev.o
 .text          0x00000000        0x0 obj\debug\src\system_stm32f4xx.o
 .data          0x00000000        0x0 obj\debug\src\system_stm32f4xx.o
 .bss           0x00000000        0x0 obj\debug\src\system_stm32f4xx.o
 .data.SystemCoreClock
                0x00000000        0x4 obj\debug\src\system_stm32f4xx.o
 .data.AHBPrescTable
                0x00000000       0x10 obj\debug\src\system_stm32f4xx.o
 .text.SystemCoreClockUpdate
                0x00000000      0x104 obj\debug\src\system_stm32f4xx.o
 .text          0x00000000        0x0 c:/program files (x86)/embitz/2.30/share/armgcc/bin/../lib/gcc/arm-none-eabi/9.3.1/../../../../arm-none-eabi/lib/thumb/v7e-m+fp/hard\libm.a(lib_a-wf_pow.o)
 .data          0x00000000        0x0 c:/program files (x86)/embitz/2.30/share/armgcc/bin/../lib/gcc/arm-none-eabi/9.3.1/../../../../arm-none-eabi/lib/thumb/v7e-m+fp/hard\libm.a(lib_a-wf_pow.o)
 .bss           0x00000000        0x0 c:/program files (x86)/embitz/2.30/share/armgcc/bin/../lib/gcc/arm-none-eabi/9.3.1/../../../../arm-none-eabi/lib/thumb/v7e-m+fp/hard\libm.a(lib_a-wf_pow.o)
 .text          0x00000000        0x0 c:/program files (x86)/embitz/2.30/share/armgcc/bin/../lib/gcc/arm-none-eabi/9.3.1/../../../../arm-none-eabi/lib/thumb/v7e-m+fp/hard\libm.a(lib_a-ef_pow.o)
 .data          0x00000000        0x0 c:/program files (x86)/embitz/2.30/share/armgcc/bin/../lib/gcc/arm-none-eabi/9.3.1/../../../../arm-none-eabi/lib/thumb/v7e-m+fp/hard\libm.a(lib_a-ef_pow.o)
 .bss           0x00000000        0x0 c:/program files (x86)/embitz/2.30/share/armgcc/bin/../lib/gcc/arm-none-eabi/9.3.1/../../../../arm-none-eabi/lib/thumb/v7e-m+fp/hard\libm.a(lib_a-ef_pow.o)
 .text          0x00000000        0x0 c:/program files (x86)/embitz/2.30/share/armgcc/bin/../lib/gcc/arm-none-eabi/9.3.1/../../../../arm-none-eabi/lib/thumb/v7e-m+fp/hard\libm.a(lib_a-ef_sqrt.o)
 .data          0x00000000        0x0 c:/program files (x86)/embitz/2.30/share/armgcc/bin/../lib/gcc/arm-none-eabi/9.3.1/../../../../arm-none-eabi/lib/thumb/v7e-m+fp/hard\libm.a(lib_a-ef_sqrt.o)
 .bss           0x00000000        0x0 c:/program files (x86)/embitz/2.30/share/armgcc/bin/../lib/gcc/arm-none-eabi/9.3.1/../../../../arm-none-eabi/lib/thumb/v7e-m+fp/hard\libm.a(lib_a-ef_sqrt.o)
 .text          0x00000000        0x0 c:/program files (x86)/embitz/2.30/share/armgcc/bin/../lib/gcc/arm-none-eabi/9.3.1/../../../../arm-none-eabi/lib/thumb/v7e-m+fp/hard\libm.a(lib_a-s_lib_ver.o)
 .data          0x00000000        0x0 c:/program files (x86)/embitz/2.30/share/armgcc/bin/../lib/gcc/arm-none-eabi/9.3.1/../../../../arm-none-eabi/lib/thumb/v7e-m+fp/hard\libm.a(lib_a-s_lib_ver.o)
 .bss           0x00000000        0x0 c:/program files (x86)/embitz/2.30/share/armgcc/bin/../lib/gcc/arm-none-eabi/9.3.1/../../../../arm-none-eabi/lib/thumb/v7e-m+fp/hard\libm.a(lib_a-s_lib_ver.o)
 .text          0x00000000        0x0 c:/program files (x86)/embitz/2.30/share/armgcc/bin/../lib/gcc/arm-none-eabi/9.3.1/../../../../arm-none-eabi/lib/thumb/v7e-m+fp/hard\libm.a(lib_a-sf_fabs.o)
 .data          0x00000000        0x0 c:/program files (x86)/embitz/2.30/share/armgcc/bin/../lib/gcc/arm-none-eabi/9.3.1/../../../../arm-none-eabi/lib/thumb/v7e-m+fp/hard\libm.a(lib_a-sf_fabs.o)
 .bss           0x00000000        0x0 c:/program files (x86)/embitz/2.30/share/armgcc/bin/../lib/gcc/arm-none-eabi/9.3.1/../../../../arm-none-eabi/lib/thumb/v7e-m+fp/hard\libm.a(lib_a-sf_fabs.o)
 .text          0x00000000        0x0 c:/program files (x86)/embitz/2.30/share/armgcc/bin/../lib/gcc/arm-none-eabi/9.3.1/../../../../arm-none-eabi/lib/thumb/v7e-m+fp/hard\libm.a(lib_a-sf_finite.o)
 .data          0x00000000        0x0 c:/program files (x86)/embitz/2.30/share/armgcc/bin/../lib/gcc/arm-none-eabi/9.3.1/../../../../arm-none-eabi/lib/thumb/v7e-m+fp/hard\libm.a(lib_a-sf_finite.o)
 .bss           0x00000000        0x0 c:/program files (x86)/embitz/2.30/share/armgcc/bin/../lib/gcc/arm-none-eabi/9.3.1/../../../../arm-none-eabi/lib/thumb/v7e-m+fp/hard\libm.a(lib_a-sf_finite.o)
 .text          0x00000000        0x0 c:/program files (x86)/embitz/2.30/share/armgcc/bin/../lib/gcc/arm-none-eabi/9.3.1/../../../../arm-none-eabi/lib/thumb/v7e-m+fp/hard\libm.a(lib_a-sf_nan.o)
 .data          0x00000000        0x0 c:/program files (x86)/embitz/2.30/share/armgcc/bin/../lib/gcc/arm-none-eabi/9.3.1/../../../../arm-none-eabi/lib/thumb/v7e-m+fp/hard\libm.a(lib_a-sf_nan.o)
 .bss           0x00000000        0x0 c:/program files (x86)/embitz/2.30/share/armgcc/bin/../lib/gcc/arm-none-eabi/9.3.1/../../../../arm-none-eabi/lib/thumb/v7e-m+fp/hard\libm.a(lib_a-sf_nan.o)
 .text          0x00000000        0x0 c:/program files (x86)/embitz/2.30/share/armgcc/bin/../lib/gcc/arm-none-eabi/9.3.1/../../../../arm-none-eabi/lib/thumb/v7e-m+fp/hard\libm.a(lib_a-sf_rint.o)
 .data          0x00000000        0x0 c:/program files (x86)/embitz/2.30/share/armgcc/bin/../lib/gcc/arm-none-eabi/9.3.1/../../../../arm-none-eabi/lib/thumb/v7e-m+fp/hard\libm.a(lib_a-sf_rint.o)
 .bss           0x00000000        0x0 c:/program files (x86)/embitz/2.30/share/armgcc/bin/../lib/gcc/arm-none-eabi/9.3.1/../../../../arm-none-eabi/lib/thumb/v7e-m+fp/hard\libm.a(lib_a-sf_rint.o)
 .text          0x00000000        0x0 c:/program files (x86)/embitz/2.30/share/armgcc/bin/../lib/gcc/arm-none-eabi/9.3.1/../../../../arm-none-eabi/lib/thumb/v7e-m+fp/hard\libm.a(lib_a-sf_scalbn.o)
 .data          0x00000000        0x0 c:/program files (x86)/embitz/2.30/share/armgcc/bin/../lib/gcc/arm-none-eabi/9.3.1/../../../../arm-none-eabi/lib/thumb/v7e-m+fp/hard\libm.a(lib_a-sf_scalbn.o)
 .bss           0x00000000        0x0 c:/program files (x86)/embitz/2.30/share/armgcc/bin/../lib/gcc/arm-none-eabi/9.3.1/../../../../arm-none-eabi/lib/thumb/v7e-m+fp/hard\libm.a(lib_a-sf_scalbn.o)
 .text          0x00000000      0x254 c:/program files (x86)/embitz/2.30/share/armgcc/bin/../lib/gcc/arm-none-eabi/9.3.1/thumb/v7e-m+fp/hard\libgcc.a(_arm_muldf3.o)
 .data          0x00000000        0x0 c:/program files (x86)/embitz/2.30/share/armgcc/bin/../lib/gcc/arm-none-eabi/9.3.1/thumb/v7e-m+fp/hard\libgcc.a(_arm_muldf3.o)
 .bss           0x00000000        0x0 c:/program files (x86)/embitz/2.30/share/armgcc/bin/../lib/gcc/arm-none-eabi/9.3.1/thumb/v7e-m+fp/hard\libgcc.a(_arm_muldf3.o)
 .debug_frame   0x00000000       0x30 c:/program files (x86)/embitz/2.30/share/armgcc/bin/../lib/gcc/arm-none-eabi/9.3.1/thumb/v7e-m+fp/hard\libgcc.a(_arm_muldf3.o)
 .ARM.attributes
                0x00000000       0x1e c:/program files (x86)/embitz/2.30/share/armgcc/bin/../lib/gcc/arm-none-eabi/9.3.1/thumb/v7e-m+fp/hard\libgcc.a(_arm_muldf3.o)
 .data          0x00000000        0x0 c:/program files (x86)/embitz/2.30/share/armgcc/bin/../lib/gcc/arm-none-eabi/9.3.1/thumb/v7e-m+fp/hard\libgcc.a(_arm_addsubdf3.o)
 .bss           0x00000000        0x0 c:/program files (x86)/embitz/2.30/share/armgcc/bin/../lib/gcc/arm-none-eabi/9.3.1/thumb/v7e-m+fp/hard\libgcc.a(_arm_addsubdf3.o)
 .data          0x00000000        0x0 c:/program files (x86)/embitz/2.30/share/armgcc/bin/../lib/gcc/arm-none-eabi/9.3.1/thumb/v7e-m+fp/hard\libgcc.a(_arm_muldivdf3.o)
 .bss           0x00000000        0x0 c:/program files (x86)/embitz/2.30/share/armgcc/bin/../lib/gcc/arm-none-eabi/9.3.1/thumb/v7e-m+fp/hard\libgcc.a(_arm_muldivdf3.o)
 .data          0x00000000        0x0 c:/program files (x86)/embitz/2.30/share/armgcc/bin/../lib/gcc/arm-none-eabi/9.3.1/thumb/v7e-m+fp/hard\libgcc.a(_arm_cmpdf2.o)
 .bss           0x00000000        0x0 c:/program files (x86)/embitz/2.30/share/armgcc/bin/../lib/gcc/arm-none-eabi/9.3.1/thumb/v7e-m+fp/hard\libgcc.a(_arm_cmpdf2.o)
 .text          0x00000000       0x50 c:/program files (x86)/embitz/2.30/share/armgcc/bin/../lib/gcc/arm-none-eabi/9.3.1/thumb/v7e-m+fp/hard\libgcc.a(_arm_fixdfsi.o)
 .data          0x00000000        0x0 c:/program files (x86)/embitz/2.30/share/armgcc/bin/../lib/gcc/arm-none-eabi/9.3.1/thumb/v7e-m+fp/hard\libgcc.a(_arm_fixdfsi.o)
 .bss           0x00000000        0x0 c:/program files (x86)/embitz/2.30/share/armgcc/bin/../lib/gcc/arm-none-eabi/9.3.1/thumb/v7e-m+fp/hard\libgcc.a(_arm_fixdfsi.o)
 .debug_frame   0x00000000       0x24 c:/program files (x86)/embitz/2.30/share/armgcc/bin/../lib/gcc/arm-none-eabi/9.3.1/thumb/v7e-m+fp/hard\libgcc.a(_arm_fixdfsi.o)
 .ARM.attributes
                0x00000000       0x1e c:/program files (x86)/embitz/2.30/share/armgcc/bin/../lib/gcc/arm-none-eabi/9.3.1/thumb/v7e-m+fp/hard\libgcc.a(_arm_fixdfsi.o)
 .data          0x00000000        0x0 c:/program files (x86)/embitz/2.30/share/armgcc/bin/../lib/gcc/arm-none-eabi/9.3.1/thumb/v7e-m+fp/hard\libgcc.a(_arm_truncdfsf2.o)
 .bss           0x00000000        0x0 c:/program files (x86)/embitz/2.30/share/armgcc/bin/../lib/gcc/arm-none-eabi/9.3.1/thumb/v7e-m+fp/hard\libgcc.a(_arm_truncdfsf2.o)
 .text          0x00000000        0x0 c:/program files (x86)/embitz/2.30/share/armgcc/bin/../lib/gcc/arm-none-eabi/9.3.1/../../../../arm-none-eabi/lib/thumb/v7e-m+fp/hard\libg_nano.a(lib_a-errno.o)
 .data          0x00000000        0x0 c:/program files (x86)/embitz/2.30/share/armgcc/bin/../lib/gcc/arm-none-eabi/9.3.1/../../../../arm-none-eabi/lib/thumb/v7e-m+fp/hard\libg_nano.a(lib_a-errno.o)
 .bss           0x00000000        0x0 c:/program files (x86)/embitz/2.30/share/armgcc/bin/../lib/gcc/arm-none-eabi/9.3.1/../../../../arm-none-eabi/lib/thumb/v7e-m+fp/hard\libg_nano.a(lib_a-errno.o)
 .text          0x00000000        0x0 c:/program files (x86)/embitz/2.30/share/armgcc/bin/../lib/gcc/arm-none-eabi/9.3.1/../../../../arm-none-eabi/lib/thumb/v7e-m+fp/hard\libg_nano.a(lib_a-exit.o)
 .data          0x00000000        0x0 c:/program files (x86)/embitz/2.30/share/armgcc/bin/../lib/gcc/arm-none-eabi/9.3.1/../../../../arm-none-eabi/lib/thumb/v7e-m+fp/hard\libg_nano.a(lib_a-exit.o)
 .bss           0x00000000        0x0 c:/program files (x86)/embitz/2.30/share/armgcc/bin/../lib/gcc/arm-none-eabi/9.3.1/../../../../arm-none-eabi/lib/thumb/v7e-m+fp/hard\libg_nano.a(lib_a-exit.o)
 .text.exit     0x00000000       0x28 c:/program files (x86)/embitz/2.30/share/armgcc/bin/../lib/gcc/arm-none-eabi/9.3.1/../../../../arm-none-eabi/lib/thumb/v7e-m+fp/hard\libg_nano.a(lib_a-exit.o)
 .debug_frame   0x00000000       0x28 c:/program files (x86)/embitz/2.30/share/armgcc/bin/../lib/gcc/arm-none-eabi/9.3.1/../../../../arm-none-eabi/lib/thumb/v7e-m+fp/hard\libg_nano.a(lib_a-exit.o)
 .ARM.attributes
                0x00000000       0x34 c:/program files (x86)/embitz/2.30/share/armgcc/bin/../lib/gcc/arm-none-eabi/9.3.1/../../../../arm-none-eabi/lib/thumb/v7e-m+fp/hard\libg_nano.a(lib_a-exit.o)
 .text          0x00000000        0x0 c:/program files (x86)/embitz/2.30/share/armgcc/bin/../lib/gcc/arm-none-eabi/9.3.1/../../../../arm-none-eabi/lib/thumb/v7e-m+fp/hard\libg_nano.a(lib_a-impure.o)
 .data          0x00000000        0x0 c:/program files (x86)/embitz/2.30/share/armgcc/bin/../lib/gcc/arm-none-eabi/9.3.1/../../../../arm-none-eabi/lib/thumb/v7e-m+fp/hard\libg_nano.a(lib_a-impure.o)
 .bss           0x00000000        0x0 c:/program files (x86)/embitz/2.30/share/armgcc/bin/../lib/gcc/arm-none-eabi/9.3.1/../../../../arm-none-eabi/lib/thumb/v7e-m+fp/hard\libg_nano.a(lib_a-impure.o)
 .rodata._global_impure_ptr
                0x00000000        0x4 c:/program files (x86)/embitz/2.30/share/armgcc/bin/../lib/gcc/arm-none-eabi/9.3.1/../../../../arm-none-eabi/lib/thumb/v7e-m+fp/hard\libg_nano.a(lib_a-impure.o)
 .text          0x00000000        0x0 c:/program files (x86)/embitz/2.30/share/armgcc/bin/../lib/gcc/arm-none-eabi/9.3.1/../../../../arm-none-eabi/lib/thumb/v7e-m+fp/hard\libg_nano.a(lib_a-init.o)
 .data          0x00000000        0x0 c:/program files (x86)/embitz/2.30/share/armgcc/bin/../lib/gcc/arm-none-eabi/9.3.1/../../../../arm-none-eabi/lib/thumb/v7e-m+fp/hard\libg_nano.a(lib_a-init.o)
 .bss           0x00000000        0x0 c:/program files (x86)/embitz/2.30/share/armgcc/bin/../lib/gcc/arm-none-eabi/9.3.1/../../../../arm-none-eabi/lib/thumb/v7e-m+fp/hard\libg_nano.a(lib_a-init.o)
 .text.__libc_init_array
                0x00000000       0x48 c:/program files (x86)/embitz/2.30/share/armgcc/bin/../lib/gcc/arm-none-eabi/9.3.1/../../../../arm-none-eabi/lib/thumb/v7e-m+fp/hard\libg_nano.a(lib_a-init.o)
 .debug_frame   0x00000000       0x2c c:/program files (x86)/embitz/2.30/share/armgcc/bin/../lib/gcc/arm-none-eabi/9.3.1/../../../../arm-none-eabi/lib/thumb/v7e-m+fp/hard\libg_nano.a(lib_a-init.o)
 .ARM.attributes
                0x00000000       0x34 c:/program files (x86)/embitz/2.30/share/armgcc/bin/../lib/gcc/arm-none-eabi/9.3.1/../../../../arm-none-eabi/lib/thumb/v7e-m+fp/hard\libg_nano.a(lib_a-init.o)
 .text          0x00000000        0x0 c:/program files (x86)/embitz/2.30/share/armgcc/bin/../lib/gcc/arm-none-eabi/9.3.1/../../../../arm-none-eabi/lib/thumb/v7e-m+fp/hard\libg_nano.a(lib_a-memset.o)
 .data          0x00000000        0x0 c:/program files (x86)/embitz/2.30/share/armgcc/bin/../lib/gcc/arm-none-eabi/9.3.1/../../../../arm-none-eabi/lib/thumb/v7e-m+fp/hard\libg_nano.a(lib_a-memset.o)
 .bss           0x00000000        0x0 c:/program files (x86)/embitz/2.30/share/armgcc/bin/../lib/gcc/arm-none-eabi/9.3.1/../../../../arm-none-eabi/lib/thumb/v7e-m+fp/hard\libg_nano.a(lib_a-memset.o)
 .text          0x00000000       0x10 c:/program files (x86)/embitz/2.30/share/armgcc/bin/../lib/gcc/arm-none-eabi/9.3.1/../../../../arm-none-eabi/lib/thumb/v7e-m+fp/hard\libg_nano.a(lib_a-strlen.o)
 .data          0x00000000        0x0 c:/program files (x86)/embitz/2.30/share/armgcc/bin/../lib/gcc/arm-none-eabi/9.3.1/../../../../arm-none-eabi/lib/thumb/v7e-m+fp/hard\libg_nano.a(lib_a-strlen.o)
 .bss           0x00000000        0x0 c:/program files (x86)/embitz/2.30/share/armgcc/bin/../lib/gcc/arm-none-eabi/9.3.1/../../../../arm-none-eabi/lib/thumb/v7e-m+fp/hard\libg_nano.a(lib_a-strlen.o)
 .ARM.attributes
                0x00000000       0x17 c:/program files (x86)/embitz/2.30/share/armgcc/bin/../lib/gcc/arm-none-eabi/9.3.1/../../../../arm-none-eabi/lib/thumb/v7e-m+fp/hard\libg_nano.a(lib_a-strlen.o)
 .text          0x00000000        0x0 c:/program files (x86)/embitz/2.30/share/armgcc/bin/../lib/gcc/arm-none-eabi/9.3.1/../../../../arm-none-eabi/lib/thumb/v7e-m+fp/hard\libnosys.a(_exit.o)
 .data          0x00000000        0x0 c:/program files (x86)/embitz/2.30/share/armgcc/bin/../lib/gcc/arm-none-eabi/9.3.1/../../../../arm-none-eabi/lib/thumb/v7e-m+fp/hard\libnosys.a(_exit.o)
 .bss           0x00000000        0x0 c:/program files (x86)/embitz/2.30/share/armgcc/bin/../lib/gcc/arm-none-eabi/9.3.1/../../../../arm-none-eabi/lib/thumb/v7e-m+fp/hard\libnosys.a(_exit.o)
 .text._exit    0x00000000        0x4 c:/program files (x86)/embitz/2.30/share/armgcc/bin/../lib/gcc/arm-none-eabi/9.3.1/../../../../arm-none-eabi/lib/thumb/v7e-m+fp/hard\libnosys.a(_exit.o)
 .debug_frame   0x00000000       0x20 c:/program files (x86)/embitz/2.30/share/armgcc/bin/../lib/gcc/arm-none-eabi/9.3.1/../../../../arm-none-eabi/lib/thumb/v7e-m+fp/hard\libnosys.a(_exit.o)
 .ARM.attributes
                0x00000000       0x34 c:/program files (x86)/embitz/2.30/share/armgcc/bin/../lib/gcc/arm-none-eabi/9.3.1/../../../../arm-none-eabi/lib/thumb/v7e-m+fp/hard\libnosys.a(_exit.o)
 .text          0x00000000        0x0 c:/program files (x86)/embitz/2.30/share/armgcc/bin/../lib/gcc/arm-none-eabi/9.3.1/thumb/v7e-m+fp/hard/crtend.o
 .data          0x00000000        0x0 c:/program files (x86)/embitz/2.30/share/armgcc/bin/../lib/gcc/arm-none-eabi/9.3.1/thumb/v7e-m+fp/hard/crtend.o
 .bss           0x00000000        0x0 c:/program files (x86)/embitz/2.30/share/armgcc/bin/../lib/gcc/arm-none-eabi/9.3.1/thumb/v7e-m+fp/hard/crtend.o
 .eh_frame      0x00000000        0x4 c:/program files (x86)/embitz/2.30/share/armgcc/bin/../lib/gcc/arm-none-eabi/9.3.1/thumb/v7e-m+fp/hard/crtend.o
 .ARM.attributes
                0x00000000       0x32 c:/program files (x86)/embitz/2.30/share/armgcc/bin/../lib/gcc/arm-none-eabi/9.3.1/thumb/v7e-m+fp/hard/crtend.o
 .text          0x00000000        0x0 c:/program files (x86)/embitz/2.30/share/armgcc/bin/../lib/gcc/arm-none-eabi/9.3.1/thumb/v7e-m+fp/hard/crtn.o
 .data          0x00000000        0x0 c:/program files (x86)/embitz/2.30/share/armgcc/bin/../lib/gcc/arm-none-eabi/9.3.1/thumb/v7e-m+fp/hard/crtn.o
 .bss           0x00000000        0x0 c:/program files (x86)/embitz/2.30/share/armgcc/bin/../lib/gcc/arm-none-eabi/9.3.1/thumb/v7e-m+fp/hard/crtn.o

Memory Configuration

Name             Origin             Length             Attributes
FLASH            0x08000000         0x00040000         xr
RAM              0x20000000         0x00010000         xrw
*default*        0x00000000         0xffffffff

Linker script and memory map

LOAD c:/program files (x86)/embitz/2.30/share/armgcc/bin/../lib/gcc/arm-none-eabi/9.3.1/thumb/v7e-m+fp/hard/crti.o
LOAD c:/program files (x86)/embitz/2.30/share/armgcc/bin/../lib/gcc/arm-none-eabi/9.3.1/thumb/v7e-m+fp/hard/crtbegin.o
LOAD c:/program files (x86)/embitz/2.30/share/armgcc/bin/../lib/gcc/arm-none-eabi/9.3.1/../../../../arm-none-eabi/lib/thumb/v7e-m+fp/hard/crt0.o
                0x00000000                __HEAP_SIZE = 0x0
                0x00000100                __STACK_SIZE = 0x100
                0x00000000                _Min_Heap_Size = __HEAP_SIZE
                0x00000100                _Min_Stack_Size = __STACK_SIZE
                0x20010000                _estack = (ORIGIN (RAM) + LENGTH (RAM))

.isr_vector     0x08000000      0x194
                0x08000000                . = ALIGN (0x4)
 *(.isr_vector)
 .isr_vector    0x08000000      0x194 obj\debug\src\startup_stm32f401xc.o
                0x08000000                g_pfnVectors
                0x08000194                . = ALIGN (0x4)

.text           0x08000198     0x4f94
                0x08000198                . = ALIGN (0x4)
 *(.text)
 .text          0x08000198       0x40 c:/program files (x86)/embitz/2.30/share/armgcc/bin/../lib/gcc/arm-none-eabi/9.3.1/thumb/v7e-m+fp/hard/crtbegin.o
 .text          0x080001d8      0x378 c:/program files (x86)/embitz/2.30/share/armgcc/bin/../lib/gcc/arm-none-eabi/9.3.1/thumb/v7e-m+fp/hard\libgcc.a(_arm_addsubdf3.o)
                0x080001d8                __aeabi_drsub
                0x080001e0                __aeabi_dsub
                0x080001e0                __subdf3
                0x080001e4                __aeabi_dadd
                0x080001e4                __adddf3
                0x0800045c                __floatunsidf
                0x0800045c                __aeabi_ui2d
                0x0800047c                __floatsidf
                0x0800047c                __aeabi_i2d
                0x080004a0                __aeabi_f2d
                0x080004a0                __extendsfdf2
                0x080004e4                __floatundidf
                0x080004e4                __aeabi_ul2d
                0x080004f4                __floatdidf
                0x080004f4                __aeabi_l2d
 .text          0x08000550      0x424 c:/program files (x86)/embitz/2.30/share/armgcc/bin/../lib/gcc/arm-none-eabi/9.3.1/thumb/v7e-m+fp/hard\libgcc.a(_arm_muldivdf3.o)
                0x08000550                __aeabi_dmul
                0x08000550                __muldf3
                0x080007a4                __divdf3
                0x080007a4                __aeabi_ddiv
 .text          0x08000974      0x110 c:/program files (x86)/embitz/2.30/share/armgcc/bin/../lib/gcc/arm-none-eabi/9.3.1/thumb/v7e-m+fp/hard\libgcc.a(_arm_cmpdf2.o)
                0x08000974                __gtdf2
                0x08000974                __gedf2
                0x0800097c                __ltdf2
                0x0800097c                __ledf2
                0x08000984                __nedf2
                0x08000984                __eqdf2
                0x08000984                __cmpdf2
                0x08000a00                __aeabi_cdrcmple
                0x08000a10                __aeabi_cdcmpeq
                0x08000a10                __aeabi_cdcmple
                0x08000a20                __aeabi_dcmpeq
                0x08000a34                __aeabi_dcmplt
                0x08000a48                __aeabi_dcmple
                0x08000a5c                __aeabi_dcmpge
                0x08000a70                __aeabi_dcmpgt
 .text          0x08000a84       0xa0 c:/program files (x86)/embitz/2.30/share/armgcc/bin/../lib/gcc/arm-none-eabi/9.3.1/thumb/v7e-m+fp/hard\libgcc.a(_arm_truncdfsf2.o)
                0x08000a84                __truncdfsf2
                0x08000a84                __aeabi_d2f
 *(.text*)
 .text.Reset_Handler
                0x08000b24       0x4c obj\debug\src\startup_stm32f401xc.o
                0x08000b24                Reset_Handler
 .text.Default_Handler
                0x08000b70        0x2 obj\debug\src\startup_stm32f401xc.o
                0x08000b70                RTC_Alarm_IRQHandler
                0x08000b70                DebugMon_Handler
                0x08000b70                SPI4_IRQHandler
                0x08000b70                TIM1_CC_IRQHandler
                0x08000b70                DMA2_Stream5_IRQHandler
                0x08000b70                HardFault_Handler
                0x08000b70                DMA1_Stream5_IRQHandler
                0x08000b70                PVD_IRQHandler
                0x08000b70                SDIO_IRQHandler
                0x08000b70                TAMP_STAMP_IRQHandler
                0x08000b70                PendSV_Handler
                0x08000b70                NMI_Handler
                0x08000b70                TIM1_UP_TIM10_IRQHandler
                0x08000b70                EXTI0_IRQHandler
                0x08000b70                DMA1_Stream2_IRQHandler
                0x08000b70                FPU_IRQHandler
                0x08000b70                UsageFault_Handler
                0x08000b70                DMA2_Stream2_IRQHandler
                0x08000b70                SPI1_IRQHandler
                0x08000b70                TIM1_BRK_TIM9_IRQHandler
                0x08000b70                DMA2_Stream3_IRQHandler
                0x08000b70                USART6_IRQHandler
                0x08000b70                DMA2_Stream0_IRQHandler
                0x08000b70                DMA1_Stream6_IRQHandler
                0x08000b70                DMA1_Stream1_IRQHandler
                0x08000b70                RCC_IRQHandler
                0x08000b70                Default_Handler
                0x08000b70                EXTI15_10_IRQHandler
                0x08000b70                DMA1_Stream7_IRQHandler
                0x08000b70                DMA2_Stream7_IRQHandler
                0x08000b70                EXTI9_5_IRQHandler
                0x08000b70                RTC_WKUP_IRQHandler
                0x08000b70                SPI2_IRQHandler
                0x08000b70                MemManage_Handler
                0x08000b70                DMA1_Stream0_IRQHandler
                0x08000b70                SVC_Handler
                0x08000b70                WWDG_IRQHandler
                0x08000b70                OTG_FS_WKUP_IRQHandler
                0x08000b70                TIM1_TRG_COM_TIM11_IRQHandler
                0x08000b70                EXTI1_IRQHandler
                0x08000b70                USART2_IRQHandler
                0x08000b70                DMA2_Stream1_IRQHandler
                0x08000b70                FLASH_IRQHandler
                0x08000b70                DMA2_Stream4_IRQHandler
                0x08000b70                BusFault_Handler
                0x08000b70                USART1_IRQHandler
                0x08000b70                OTG_FS_IRQHandler
                0x08000b70                SPI3_IRQHandler
                0x08000b70                DMA1_Stream4_IRQHandler
                0x08000b70                DMA2_Stream6_IRQHandler
                0x08000b70                DMA1_Stream3_IRQHandler
 *fill*         0x08000b72        0x2 
 .text.TCS3472_Init
                0x08000b74      0x138 obj\debug\external\colorsensor\tcs3472.o
                0x08000b74                TCS3472_Init
 .text.TCS3472_ON
                0x08000cac       0x5c obj\debug\external\colorsensor\tcs3472.o
 .text.TCS3472_OFF
                0x08000d08       0x50 obj\debug\external\colorsensor\tcs3472.o
 .text.TCS3472_GetRGB
                0x08000d58       0xe0 obj\debug\external\colorsensor\tcs3472.o
                0x08000d58                TCS3472_GetRGB
 .text.TCS3472_GetRawData
                0x08000e38       0x64 obj\debug\external\colorsensor\tcs3472.o
                0x08000e38                TCS3472_GetRawData
 .text.TCS3472_SetProperties
                0x08000e9c       0x8c obj\debug\external\colorsensor\tcs3472.o
                0x08000e9c                TCS3472_SetProperties
 .text.TCS3472_Connect
                0x08000f28      0x11c obj\debug\external\colorsensor\tcs3472.o
                0x08000f28                TCS3472_Connect
 .text.SSD1306_Init
                0x08001044      0x23c obj\debug\external\ssd1306\ssd1306.o
                0x08001044                SSD1306_Init
 .text.SSD1306_UpdateScreen
                0x08001280       0x68 obj\debug\external\ssd1306\ssd1306.o
                0x08001280                SSD1306_UpdateScreen
 .text.SSD1306_Fill
                0x080012e8       0x30 obj\debug\external\ssd1306\ssd1306.o
                0x080012e8                SSD1306_Fill
 .text.SSD1306_DrawPixel
                0x08001318       0xc0 obj\debug\external\ssd1306\ssd1306.o
                0x08001318                SSD1306_DrawPixel
 .text.SSD1306_GotoXY
                0x080013d8       0x2c obj\debug\external\ssd1306\ssd1306.o
                0x080013d8                SSD1306_GotoXY
 .text.SSD1306_Putc
                0x08001404      0x100 obj\debug\external\ssd1306\ssd1306.o
                0x08001404                SSD1306_Putc
 .text.SSD1306_Puts
                0x08001504       0x4a obj\debug\external\ssd1306\ssd1306.o
                0x08001504                SSD1306_Puts
 .text.ssd1306_I2C_WriteMulti
                0x0800154e       0x5c obj\debug\external\ssd1306\ssd1306_i2c.o
                0x0800154e                ssd1306_I2C_WriteMulti
 *fill*         0x080015aa        0x2 
 .text.ssd1306_I2C_Start
                0x080015ac      0x128 obj\debug\external\ssd1306\ssd1306_i2c.o
                0x080015ac                ssd1306_I2C_Start
 .text.ssd1306_I2C_WriteData
                0x080016d4       0x50 obj\debug\external\ssd1306\ssd1306_i2c.o
                0x080016d4                ssd1306_I2C_WriteData
 .text.ssd1306_I2C_Write
                0x08001724       0x48 obj\debug\external\ssd1306\ssd1306_i2c.o
                0x08001724                ssd1306_I2C_Write
 .text.ssd1306_I2C_Stop
                0x0800176c       0x68 obj\debug\external\ssd1306\ssd1306_i2c.o
                0x0800176c                ssd1306_I2C_Stop
 .text.ssd1306_I2C_IsDeviceConnected
                0x080017d4       0x36 obj\debug\external\ssd1306\ssd1306_i2c.o
                0x080017d4                ssd1306_I2C_IsDeviceConnected
 .text.ADC_IRQHandler
                0x0800180a        0xe obj\debug\fil_lib\src\adc.o
                0x0800180a                ADC_IRQHandler
 .text.ADC_Init
                0x08001818       0xc4 obj\debug\fil_lib\src\adc.o
                0x08001818                ADC_Init
 .text.I2C1_EV_IRQHandler
                0x080018dc        0xe obj\debug\fil_lib\src\i2c.o
                0x080018dc                I2C1_EV_IRQHandler
 .text.I2C2_EV_IRQHandler
                0x080018ea        0xe obj\debug\fil_lib\src\i2c.o
                0x080018ea                I2C2_EV_IRQHandler
 .text.I2C3_EV_IRQHandler
                0x080018f8        0xe obj\debug\fil_lib\src\i2c.o
                0x080018f8                I2C3_EV_IRQHandler
 .text.I2C1_ER_IRQHandler
                0x08001906        0xe obj\debug\fil_lib\src\i2c.o
                0x08001906                I2C1_ER_IRQHandler
 .text.I2C2_ER_IRQHandler
                0x08001914        0xe obj\debug\fil_lib\src\i2c.o
                0x08001914                I2C2_ER_IRQHandler
 .text.I2C3_ER_IRQHandler
                0x08001922        0xe obj\debug\fil_lib\src\i2c.o
                0x08001922                I2C3_ER_IRQHandler
 .text.I2C_ClearAllStats
                0x08001930       0x28 obj\debug\fil_lib\src\i2c.o
                0x08001930                I2C_ClearAllStats
 .text.I2C_MemoryWriteSingle
                0x08001958      0x170 obj\debug\fil_lib\src\i2c.o
                0x08001958                I2C_MemoryWriteSingle
 .text.I2C_MemoryReadMultiple
                0x08001ac8      0x1fc obj\debug\fil_lib\src\i2c.o
                0x08001ac8                I2C_MemoryReadMultiple
 .text.I2C_MemoryReadSingle
                0x08001cc4      0x1b4 obj\debug\fil_lib\src\i2c.o
                0x08001cc4                I2C_MemoryReadSingle
 .text.I2C_RestoreConnection
                0x08001e78      0x1b4 obj\debug\fil_lib\src\i2c.o
                0x08001e78                I2C_RestoreConnection
 .text.CalcRCCClocks
                0x0800202c      0x134 obj\debug\fil_lib\src\rcc.o
                0x0800202c                CalcRCCClocks
 .text.SysTick_Handler
                0x08002160       0x1c obj\debug\fil_lib\src\tim.o
                0x08002160                SysTick_Handler
 .text.TIM3_IRQHandler
                0x0800217c       0x18 obj\debug\fil_lib\src\tim.o
                0x0800217c                TIM3_IRQHandler
 .text.TIM5_IRQHandler
                0x08002194       0x18 obj\debug\fil_lib\src\tim.o
                0x08002194                TIM5_IRQHandler
 .text.delay_ms
                0x080021ac       0x40 obj\debug\fil_lib\src\tim.o
                0x080021ac                delay_ms
 .text.CalcTimFrequency
                0x080021ec       0x74 obj\debug\fil_lib\src\tim.o
                0x080021ec                CalcTimFrequency
 .text.CalcTimClockSourse
                0x08002260       0x8c obj\debug\fil_lib\src\tim.o
                0x08002260                CalcTimClockSourse
 .text.SetPWM   0x080022ec       0xd0 obj\debug\fil_lib\src\tim.o
                0x080022ec                SetPWM
 .text.__NVIC_EnableIRQ
                0x080023bc       0x3c obj\debug\src\functions.o
 .text.__NVIC_DisableIRQ
                0x080023f8       0x48 obj\debug\src\functions.o
 .text.__NVIC_SetPriority
                0x08002440       0x54 obj\debug\src\functions.o
 .text.SysTick_Config
                0x08002494       0x44 obj\debug\src\functions.o
 .text.read     0x080024d8      0x1e0 obj\debug\src\functions.o
                0x080024d8                read
 .text.config   0x080026b8      0xdd8 obj\debug\src\functions.o
                0x080026b8                config
 .text.SetSpeed
                0x08003490       0x98 obj\debug\src\functions.o
                0x08003490                SetSpeed
 .text.PID      0x08003528       0xc4 obj\debug\src\functions.o
                0x08003528                PID
 .text.PID_Calc
                0x080035ec      0x350 obj\debug\src\functions.o
                0x080035ec                PID_Calc
 .text.checkcolor
                0x0800393c      0x174 obj\debug\src\functions.o
                0x0800393c                checkcolor
 .text.cube     0x08003ab0       0x74 obj\debug\src\functions.o
                0x08003ab0                cube
 .text.TIM4_IRQHandler
                0x08003b24       0x60 obj\debug\src\functions.o
                0x08003b24                TIM4_IRQHandler
 .text.EXTI2_IRQHandler
                0x08003b84       0xc0 obj\debug\src\functions.o
                0x08003b84                EXTI2_IRQHandler
 .text.EXTI3_IRQHandler
                0x08003c44       0x5c obj\debug\src\functions.o
                0x08003c44                EXTI3_IRQHandler
 .text.EXTI4_IRQHandler
                0x08003ca0       0x24 obj\debug\src\functions.o
                0x08003ca0                EXTI4_IRQHandler
 *fill*         0x08003cc4        0x4 
 .text.TIM2_IRQHandler
                0x08003cc8      0x208 obj\debug\src\functions.o
                0x08003cc8                TIM2_IRQHandler
 .text.godistance
                0x08003ed0       0x80 obj\debug\src\functions.o
                0x08003ed0                godistance
 .text.rotatePlatform
                0x08003f50      0x138 obj\debug\src\functions.o
                0x08003f50                rotatePlatform
 .text.checkWays
                0x08004088       0x84 obj\debug\src\functions.o
                0x08004088                checkWays
 .text.leftHand
                0x0800410c      0x128 obj\debug\src\functions.o
                0x0800410c                leftHand
 *fill*         0x08004234        0x4 
 .text.wallREG  0x08004238      0x2c8 obj\debug\src\functions.o
                0x08004238                wallREG
 .text.main     0x08004500       0x7c obj\debug\src\main.o
                0x08004500                main
 .text.writeint
                0x0800457c       0xfc obj\debug\src\oled.o
                0x0800457c                writeint
 .text.SystemInit
                0x08004678       0x6c obj\debug\src\system_stm32f4xx.o
                0x08004678                SystemInit
 .text.SetSysClock
                0x080046e4       0xf4 obj\debug\src\system_stm32f4xx.o
 .text.powf     0x080047d8      0x140 c:/program files (x86)/embitz/2.30/share/armgcc/bin/../lib/gcc/arm-none-eabi/9.3.1/../../../../arm-none-eabi/lib/thumb/v7e-m+fp/hard\libm.a(lib_a-wf_pow.o)
                0x080047d8                powf
 .text.__ieee754_powf
                0x08004918      0x600 c:/program files (x86)/embitz/2.30/share/armgcc/bin/../lib/gcc/arm-none-eabi/9.3.1/../../../../arm-none-eabi/lib/thumb/v7e-m+fp/hard\libm.a(lib_a-ef_pow.o)
                0x08004918                __ieee754_powf
 .text.__ieee754_sqrtf
                0x08004f18        0x8 c:/program files (x86)/embitz/2.30/share/armgcc/bin/../lib/gcc/arm-none-eabi/9.3.1/../../../../arm-none-eabi/lib/thumb/v7e-m+fp/hard\libm.a(lib_a-ef_sqrt.o)
                0x08004f18                __ieee754_sqrtf
 .text.fabsf    0x08004f20       0x10 c:/program files (x86)/embitz/2.30/share/armgcc/bin/../lib/gcc/arm-none-eabi/9.3.1/../../../../arm-none-eabi/lib/thumb/v7e-m+fp/hard\libm.a(lib_a-sf_fabs.o)
                0x08004f20                fabsf
 .text.finitef  0x08004f30       0x1c c:/program files (x86)/embitz/2.30/share/armgcc/bin/../lib/gcc/arm-none-eabi/9.3.1/../../../../arm-none-eabi/lib/thumb/v7e-m+fp/hard\libm.a(lib_a-sf_finite.o)
                0x08004f30                finitef
 .text.nanf     0x08004f4c        0xc c:/program files (x86)/embitz/2.30/share/armgcc/bin/../lib/gcc/arm-none-eabi/9.3.1/../../../../arm-none-eabi/lib/thumb/v7e-m+fp/hard\libm.a(lib_a-sf_nan.o)
                0x08004f4c                nanf
 .text.rintf    0x08004f58       0xbc c:/program files (x86)/embitz/2.30/share/armgcc/bin/../lib/gcc/arm-none-eabi/9.3.1/../../../../arm-none-eabi/lib/thumb/v7e-m+fp/hard\libm.a(lib_a-sf_rint.o)
                0x08004f58                rintf
 .text.scalbnf  0x08005014       0xe4 c:/program files (x86)/embitz/2.30/share/armgcc/bin/../lib/gcc/arm-none-eabi/9.3.1/../../../../arm-none-eabi/lib/thumb/v7e-m+fp/hard\libm.a(lib_a-sf_scalbn.o)
                0x08005014                scalbnf
 .text.__errno  0x080050f8        0xc c:/program files (x86)/embitz/2.30/share/armgcc/bin/../lib/gcc/arm-none-eabi/9.3.1/../../../../arm-none-eabi/lib/thumb/v7e-m+fp/hard\libg_nano.a(lib_a-errno.o)
                0x080050f8                __errno
 .text.memset   0x08005104       0x10 c:/program files (x86)/embitz/2.30/share/armgcc/bin/../lib/gcc/arm-none-eabi/9.3.1/../../../../arm-none-eabi/lib/thumb/v7e-m+fp/hard\libg_nano.a(lib_a-memset.o)
                0x08005104                memset
 *(.glue_7)
 .glue_7        0x08005114        0x0 linker stubs
 *(.glue_7t)
 .glue_7t       0x08005114        0x0 linker stubs
 *(.eh_frame)
 .eh_frame      0x08005114        0x0 c:/program files (x86)/embitz/2.30/share/armgcc/bin/../lib/gcc/arm-none-eabi/9.3.1/thumb/v7e-m+fp/hard/crtbegin.o
 *(.init)
 .init          0x08005114        0x4 c:/program files (x86)/embitz/2.30/share/armgcc/bin/../lib/gcc/arm-none-eabi/9.3.1/thumb/v7e-m+fp/hard/crti.o
                0x08005114                _init
 .init          0x08005118        0x8 c:/program files (x86)/embitz/2.30/share/armgcc/bin/../lib/gcc/arm-none-eabi/9.3.1/thumb/v7e-m+fp/hard/crtn.o
 *(.fini)
 .fini          0x08005120        0x4 c:/program files (x86)/embitz/2.30/share/armgcc/bin/../lib/gcc/arm-none-eabi/9.3.1/thumb/v7e-m+fp/hard/crti.o
                0x08005120                _fini
 .fini          0x08005124        0x8 c:/program files (x86)/embitz/2.30/share/armgcc/bin/../lib/gcc/arm-none-eabi/9.3.1/thumb/v7e-m+fp/hard/crtn.o
                0x0800512c                . = ALIGN (0x4)
                0x0800512c                _etext = .

.vfp11_veneer   0x0800512c        0x0
 .vfp11_veneer  0x0800512c        0x0 linker stubs

.v4_bx          0x0800512c        0x0
 .v4_bx         0x0800512c        0x0 linker stubs

.iplt           0x0800512c        0x0
 .iplt          0x0800512c        0x0 c:/program files (x86)/embitz/2.30/share/armgcc/bin/../lib/gcc/arm-none-eabi/9.3.1/thumb/v7e-m+fp/hard/crtbegin.o

.rodata         0x0800512c     0x1508
                0x0800512c                . = ALIGN (0x4)
 *(.rodata)
 .rodata        0x0800512c       0x32 obj\debug\src\functions.o
 *(.rodata*)
 *fill*         0x0800515e        0x2 
 .rodata.Font7x10
                0x08005160      0x76c obj\debug\src\main.o
                0x08005160                Font7x10
 .rodata.Font11x18
                0x080058cc      0xd5c obj\debug\src\main.o
                0x080058cc                Font11x18
 .rodata.__ieee754_powf.str1.4
                0x08006628        0x1 c:/program files (x86)/embitz/2.30/share/armgcc/bin/../lib/gcc/arm-none-eabi/9.3.1/../../../../arm-none-eabi/lib/thumb/v7e-m+fp/hard\libm.a(lib_a-ef_pow.o)
 *fill*         0x08006629        0x3 
 .rodata.TWO23  0x0800662c        0x8 c:/program files (x86)/embitz/2.30/share/armgcc/bin/../lib/gcc/arm-none-eabi/9.3.1/../../../../arm-none-eabi/lib/thumb/v7e-m+fp/hard\libm.a(lib_a-sf_rint.o)
                0x08006634                . = ALIGN (0x4)

.rel.dyn        0x08006634        0x0
 .rel.iplt      0x08006634        0x0 c:/program files (x86)/embitz/2.30/share/armgcc/bin/../lib/gcc/arm-none-eabi/9.3.1/thumb/v7e-m+fp/hard/crtbegin.o

.ARM.extab
 *(.ARM.extab* .gnu.linkonce.armextab.*)

.ARM            0x08006634        0x0
                0x08006634                __exidx_start = .
 *(.ARM.exidx*)
                0x08006634                __exidx_end = .

.preinit_array  0x08006634        0x0
                0x08006634                PROVIDE (__preinit_array_start = .)
 *(.preinit_array*)
                0x08006634                PROVIDE (__preinit_array_end = .)

.init_array     0x08006634        0x4
                0x08006634                PROVIDE (__init_array_start = .)
 *(SORT_BY_NAME(.init_array.*))
 *(.init_array*)
 .init_array    0x08006634        0x4 c:/program files (x86)/embitz/2.30/share/armgcc/bin/../lib/gcc/arm-none-eabi/9.3.1/thumb/v7e-m+fp/hard/crtbegin.o
                0x08006638                PROVIDE (__init_array_end = .)

.fini_array     0x08006638        0x4
                [!provide]                PROVIDE (__fini_array_start = .)
 *(SORT_BY_NAME(.fini_array.*))
 *(.fini_array*)
 .fini_array    0x08006638        0x4 c:/program files (x86)/embitz/2.30/share/armgcc/bin/../lib/gcc/arm-none-eabi/9.3.1/thumb/v7e-m+fp/hard/crtbegin.o
                [!provide]                PROVIDE (__fini_array_end = .)
                0x0800663c                _sidata = LOADADDR (.data)

.data           0x20000000       0x94 load address 0x0800663c
                0x20000000                . = ALIGN (0x4)
                0x20000000                _sdata = .
 *(.data)
 *(.data*)
 .data.PrescalerTable
                0x20000000       0x10 obj\debug\fil_lib\src\rcc.o
 .data.wallK    0x20000010        0x4 obj\debug\src\functions.o
                0x20000010                wallK
 .data.walld    0x20000014        0x4 obj\debug\src\functions.o
                0x20000014                walld
 .data.wallpreverr
                0x20000018        0x4 obj\debug\src\functions.o
                0x20000018                wallpreverr
 .data.Font_7x10
                0x2000001c        0x8 obj\debug\src\main.o
                0x2000001c                Font_7x10
 .data.Font_11x18
                0x20000024        0x8 obj\debug\src\main.o
                0x20000024                Font_11x18
 .data.__fdlib_version
                0x2000002c        0x1 c:/program files (x86)/embitz/2.30/share/armgcc/bin/../lib/gcc/arm-none-eabi/9.3.1/../../../../arm-none-eabi/lib/thumb/v7e-m+fp/hard\libm.a(lib_a-s_lib_ver.o)
                0x2000002c                __fdlib_version
 *fill*         0x2000002d        0x3 
 .data._impure_ptr
                0x20000030        0x4 c:/program files (x86)/embitz/2.30/share/armgcc/bin/../lib/gcc/arm-none-eabi/9.3.1/../../../../arm-none-eabi/lib/thumb/v7e-m+fp/hard\libg_nano.a(lib_a-impure.o)
                0x20000030                _impure_ptr
 .data.impure_data
                0x20000034       0x60 c:/program files (x86)/embitz/2.30/share/armgcc/bin/../lib/gcc/arm-none-eabi/9.3.1/../../../../arm-none-eabi/lib/thumb/v7e-m+fp/hard\libg_nano.a(lib_a-impure.o)
                0x20000094                . = ALIGN (0x4)
                0x20000094                _edata = .

.igot.plt       0x20000094        0x0 load address 0x080066d0
 .igot.plt      0x20000094        0x0 c:/program files (x86)/embitz/2.30/share/armgcc/bin/../lib/gcc/arm-none-eabi/9.3.1/thumb/v7e-m+fp/hard/crtbegin.o
                0x20000094                . = ALIGN (0x4)

.bss            0x20000094      0x7e4 load address 0x080066d0
                0x20000094                _sbss = .
                0x20000094                __bss_start__ = _sbss
 *(.bss)
 .bss           0x20000094       0x1c c:/program files (x86)/embitz/2.30/share/armgcc/bin/../lib/gcc/arm-none-eabi/9.3.1/thumb/v7e-m+fp/hard/crtbegin.o
 *(.bss*)
 .bss.TCS3472_timeout
                0x200000b0        0x4 obj\debug\external\colorsensor\tcs3472.o
 .bss.SSD1306_Buffer
                0x200000b4      0x400 obj\debug\external\ssd1306\ssd1306.o
 .bss.SSD1306   0x200004b4        0x6 obj\debug\external\ssd1306\ssd1306.o
 *fill*         0x200004ba        0x2 
 .bss.ssd1306_I2C_Timeout
                0x200004bc        0x4 obj\debug\external\ssd1306\ssd1306_i2c.o
 .bss.ADC1_Data
                0x200004c0        0x4 obj\debug\fil_lib\src\adc.o
                0x200004c0                ADC1_Data
 .bss.I2C_timeout
                0x200004c4        0x4 obj\debug\fil_lib\src\i2c.o
 .bss.globalTime
                0x200004c8        0x4 obj\debug\fil_lib\src\tim.o
                0x200004c8                globalTime
 .bss.startTick
                0x200004cc        0x4 obj\debug\fil_lib\src\tim.o
 .bss.work      0x200004d0        0x1 obj\debug\src\functions.o
                0x200004d0                work
 *fill*         0x200004d1        0x3 
 .bss.baseint   0x200004d4        0x4 obj\debug\src\functions.o
                0x200004d4                baseint
 .bss.NUMBER    0x200004d8        0x4 obj\debug\src\functions.o
                0x200004d8                NUMBER
 .bss.cubeflag  0x200004dc        0x1 obj\debug\src\functions.o
                0x200004dc                cubeflag
 .bss.mazeflag  0x200004dd        0x1 obj\debug\src\functions.o
                0x200004dd                mazeflag
 *fill*         0x200004de        0x2 
 .bss.prevrast  0x200004e0        0x4 obj\debug\src\functions.o
                0x200004e0                prevrast
 *(COMMON)
 COMMON         0x200004e4      0x299 obj\debug\external\colorsensor\tcs3472.o
                0x200004e4                I2CStatus
                0x200004f0                TIMStatus
                0x20000510                TCS3472
                0x20000538                ADCStatus
                0x20000564                RCH
                0x20000568                Tank_60x60
                0x20000768                Clocks
                0x2000077c                JCH
 *fill*         0x2000077d        0x3 
 COMMON         0x20000780       0xe5 obj\debug\src\functions.o
                0x20000780                linS
                0x20000788                uglS
                0x20000790                pregStruct
                0x200007a0                iswall
                0x200007a4                lens
                0x200007a8                distance
                0x200007ac                cubREGstruct
                0x200007cc                myint
                0x200007d0                rast
                0x200007dc                sens
                0x200007f4                ways
                0x200007f8                PIDstruct
                0x20000858                EncoderData
                0x2000085c                speed
                0x20000864                confirmK
 *fill*         0x20000865        0x3 
 COMMON         0x20000868       0x10 obj\debug\src\main.o
                0x20000868                b
                0x2000086a                g
                0x2000086c                dist
                0x20000874                h
                0x20000878                . = ALIGN (0x4)
                0x20000878                _ebss = .
                0x20000878                __bss_end__ = _ebss

.heap           0x20000878        0x0 load address 0x080066d0
                0x20000878                . = ALIGN (0x4)
                [!provide]                PROVIDE (end = .)
                [!provide]                PROVIDE (_end = .)
 *(.heap*)
                0x20000878                . = (. + _Min_Heap_Size)
                0x20000878                __HeapLimit = .
                0x20000878                . = ALIGN (0x4)

.ARM.attributes
                0x00000000       0x30
 *(.ARM.attributes)
 .ARM.attributes
                0x00000000       0x1e c:/program files (x86)/embitz/2.30/share/armgcc/bin/../lib/gcc/arm-none-eabi/9.3.1/thumb/v7e-m+fp/hard/crti.o
 .ARM.attributes
                0x0000001e       0x34 c:/program files (x86)/embitz/2.30/share/armgcc/bin/../lib/gcc/arm-none-eabi/9.3.1/thumb/v7e-m+fp/hard/crtbegin.o
 .ARM.attributes
                0x00000052       0x21 obj\debug\src\startup_stm32f401xc.o
 .ARM.attributes
                0x00000073       0x34 obj\debug\external\colorsensor\tcs3472.o
 .ARM.attributes
                0x000000a7       0x34 obj\debug\external\ssd1306\ssd1306.o
 .ARM.attributes
                0x000000db       0x34 obj\debug\external\ssd1306\ssd1306_i2c.o
 .ARM.attributes
                0x0000010f       0x34 obj\debug\fil_lib\src\adc.o
 .ARM.attributes
                0x00000143       0x34 obj\debug\fil_lib\src\i2c.o
 .ARM.attributes
                0x00000177       0x34 obj\debug\fil_lib\src\rcc.o
 .ARM.attributes
                0x000001ab       0x34 obj\debug\fil_lib\src\tim.o
 .ARM.attributes
                0x000001df       0x34 obj\debug\src\functions.o
 .ARM.attributes
                0x00000213       0x34 obj\debug\src\main.o
 .ARM.attributes
                0x00000247       0x34 obj\debug\src\oled.o
 .ARM.attributes
                0x0000027b       0x34 obj\debug\src\system_stm32f4xx.o
 .ARM.attributes
                0x000002af       0x34 c:/program files (x86)/embitz/2.30/share/armgcc/bin/../lib/gcc/arm-none-eabi/9.3.1/../../../../arm-none-eabi/lib/thumb/v7e-m+fp/hard\libm.a(lib_a-wf_pow.o)
 .ARM.attributes
                0x000002e3       0x34 c:/program files (x86)/embitz/2.30/share/armgcc/bin/../lib/gcc/arm-none-eabi/9.3.1/../../../../arm-none-eabi/lib/thumb/v7e-m+fp/hard\libm.a(lib_a-ef_pow.o)
 .ARM.attributes
                0x00000317       0x34 c:/program files (x86)/embitz/2.30/share/armgcc/bin/../lib/gcc/arm-none-eabi/9.3.1/../../../../arm-none-eabi/lib/thumb/v7e-m+fp/hard\libm.a(lib_a-ef_sqrt.o)
 .ARM.attributes
                0x0000034b       0x32 c:/program files (x86)/embitz/2.30/share/armgcc/bin/../lib/gcc/arm-none-eabi/9.3.1/../../../../arm-none-eabi/lib/thumb/v7e-m+fp/hard\libm.a(lib_a-s_lib_ver.o)
 .ARM.attributes
                0x0000037d       0x34 c:/program files (x86)/embitz/2.30/share/armgcc/bin/../lib/gcc/arm-none-eabi/9.3.1/../../../../arm-none-eabi/lib/thumb/v7e-m+fp/hard\libm.a(lib_a-sf_fabs.o)
 .ARM.attributes
                0x000003b1       0x34 c:/program files (x86)/embitz/2.30/share/armgcc/bin/../lib/gcc/arm-none-eabi/9.3.1/../../../../arm-none-eabi/lib/thumb/v7e-m+fp/hard\libm.a(lib_a-sf_finite.o)
 .ARM.attributes
                0x000003e5       0x34 c:/program files (x86)/embitz/2.30/share/armgcc/bin/../lib/gcc/arm-none-eabi/9.3.1/../../../../arm-none-eabi/lib/thumb/v7e-m+fp/hard\libm.a(lib_a-sf_nan.o)
 .ARM.attributes
                0x00000419       0x34 c:/program files (x86)/embitz/2.30/share/armgcc/bin/../lib/gcc/arm-none-eabi/9.3.1/../../../../arm-none-eabi/lib/thumb/v7e-m+fp/hard\libm.a(lib_a-sf_rint.o)
 .ARM.attributes
                0x0000044d       0x34 c:/program files (x86)/embitz/2.30/share/armgcc/bin/../lib/gcc/arm-none-eabi/9.3.1/../../../../arm-none-eabi/lib/thumb/v7e-m+fp/hard\libm.a(lib_a-sf_scalbn.o)
 .ARM.attributes
                0x00000481       0x1e c:/program files (x86)/embitz/2.30/share/armgcc/bin/../lib/gcc/arm-none-eabi/9.3.1/thumb/v7e-m+fp/hard\libgcc.a(_arm_addsubdf3.o)
 .ARM.attributes
                0x0000049f       0x1e c:/program files (x86)/embitz/2.30/share/armgcc/bin/../lib/gcc/arm-none-eabi/9.3.1/thumb/v7e-m+fp/hard\libgcc.a(_arm_muldivdf3.o)
 .ARM.attributes
                0x000004bd       0x1e c:/program files (x86)/embitz/2.30/share/armgcc/bin/../lib/gcc/arm-none-eabi/9.3.1/thumb/v7e-m+fp/hard\libgcc.a(_arm_cmpdf2.o)
 .ARM.attributes
                0x000004db       0x1e c:/program files (x86)/embitz/2.30/share/armgcc/bin/../lib/gcc/arm-none-eabi/9.3.1/thumb/v7e-m+fp/hard\libgcc.a(_arm_truncdfsf2.o)
 .ARM.attributes
                0x000004f9       0x34 c:/program files (x86)/embitz/2.30/share/armgcc/bin/../lib/gcc/arm-none-eabi/9.3.1/../../../../arm-none-eabi/lib/thumb/v7e-m+fp/hard\libg_nano.a(lib_a-errno.o)
 .ARM.attributes
                0x0000052d       0x32 c:/program files (x86)/embitz/2.30/share/armgcc/bin/../lib/gcc/arm-none-eabi/9.3.1/../../../../arm-none-eabi/lib/thumb/v7e-m+fp/hard\libg_nano.a(lib_a-impure.o)
 .ARM.attributes
                0x0000055f       0x34 c:/program files (x86)/embitz/2.30/share/armgcc/bin/../lib/gcc/arm-none-eabi/9.3.1/../../../../arm-none-eabi/lib/thumb/v7e-m+fp/hard\libg_nano.a(lib_a-memset.o)
 .ARM.attributes
                0x00000593       0x1e c:/program files (x86)/embitz/2.30/share/armgcc/bin/../lib/gcc/arm-none-eabi/9.3.1/thumb/v7e-m+fp/hard/crtn.o
                0x2000ff00                __StackLimit = (_estack - _Min_Stack_Size)
                0x00000001                ASSERT ((__StackLimit >= __HeapLimit), Region RAM overflowed with stack)
LOAD obj\debug\src\startup_stm32f401xc.o
LOAD obj\debug\external\colorsensor\tcs3472.o
LOAD obj\debug\external\matrix\matrix.o
LOAD obj\debug\external\modbus\ascii\modbus_ascii.o
LOAD obj\debug\external\mpu9250\mpu9250.o
LOAD obj\debug\external\regulators\regulators.o
LOAD obj\debug\external\ssd1306\fonts.o
LOAD obj\debug\external\ssd1306\images.o
LOAD obj\debug\external\ssd1306\ssd1306.o
LOAD obj\debug\external\ssd1306\ssd1306_i2c.o
LOAD obj\debug\fil_lib\src\adc.o
LOAD obj\debug\fil_lib\src\dma.o
LOAD obj\debug\fil_lib\src\exti.o
LOAD obj\debug\fil_lib\src\i2c.o
LOAD obj\debug\fil_lib\src\rcc.o
LOAD obj\debug\fil_lib\src\rtc.o
LOAD obj\debug\fil_lib\src\tim.o
LOAD obj\debug\fil_lib\src\usart.o
LOAD obj\debug\src\functions.o
LOAD obj\debug\src\main.o
LOAD obj\debug\src\oled.o
LOAD obj\debug\dev\dev.o
LOAD obj\debug\src\system_stm32f4xx.o
LOAD c:/program files (x86)/embitz/2.30/share/armgcc/bin/../lib/gcc/arm-none-eabi/9.3.1/../../../../arm-none-eabi/lib/thumb/v7e-m+fp/hard\libstdc++_nano.a
LOAD c:/program files (x86)/embitz/2.30/share/armgcc/bin/../lib/gcc/arm-none-eabi/9.3.1/../../../../arm-none-eabi/lib/thumb/v7e-m+fp/hard\libm.a
START GROUP
LOAD c:/program files (x86)/embitz/2.30/share/armgcc/bin/../lib/gcc/arm-none-eabi/9.3.1/thumb/v7e-m+fp/hard\libgcc.a
LOAD c:/program files (x86)/embitz/2.30/share/armgcc/bin/../lib/gcc/arm-none-eabi/9.3.1/../../../../arm-none-eabi/lib/thumb/v7e-m+fp/hard\libg_nano.a
LOAD c:/program files (x86)/embitz/2.30/share/armgcc/bin/../lib/gcc/arm-none-eabi/9.3.1/../../../../arm-none-eabi/lib/thumb/v7e-m+fp/hard\libc_nano.a
END GROUP
START GROUP
LOAD c:/program files (x86)/embitz/2.30/share/armgcc/bin/../lib/gcc/arm-none-eabi/9.3.1/thumb/v7e-m+fp/hard\libgcc.a
LOAD c:/program files (x86)/embitz/2.30/share/armgcc/bin/../lib/gcc/arm-none-eabi/9.3.1/../../../../arm-none-eabi/lib/thumb/v7e-m+fp/hard\libc_nano.a
LOAD c:/program files (x86)/embitz/2.30/share/armgcc/bin/../lib/gcc/arm-none-eabi/9.3.1/../../../../arm-none-eabi/lib/thumb/v7e-m+fp/hard\libnosys.a
END GROUP
START GROUP
LOAD c:/program files (x86)/embitz/2.30/share/armgcc/bin/../lib/gcc/arm-none-eabi/9.3.1/thumb/v7e-m+fp/hard\libgcc.a
LOAD c:/program files (x86)/embitz/2.30/share/armgcc/bin/../lib/gcc/arm-none-eabi/9.3.1/../../../../arm-none-eabi/lib/thumb/v7e-m+fp/hard\libc_nano.a
LOAD c:/program files (x86)/embitz/2.30/share/armgcc/bin/../lib/gcc/arm-none-eabi/9.3.1/../../../../arm-none-eabi/lib/thumb/v7e-m+fp/hard\libnosys.a
END GROUP
LOAD c:/program files (x86)/embitz/2.30/share/armgcc/bin/../lib/gcc/arm-none-eabi/9.3.1/thumb/v7e-m+fp/hard/crtend.o
LOAD c:/program files (x86)/embitz/2.30/share/armgcc/bin/../lib/gcc/arm-none-eabi/9.3.1/thumb/v7e-m+fp/hard/crtn.o
OUTPUT(bin\Debug\SmallCar.elf elf32-littlearm)
LOAD linker stubs

.debug_line     0x00000000     0x40dc
 .debug_line    0x00000000       0x77 obj\debug\src\startup_stm32f401xc.o
 .debug_line    0x00000077      0x65c obj\debug\external\colorsensor\tcs3472.o
 .debug_line    0x000006d3      0x91f obj\debug\external\ssd1306\ssd1306.o
 .debug_line    0x00000ff2      0x425 obj\debug\external\ssd1306\ssd1306_i2c.o
 .debug_line    0x00001417      0x2da obj\debug\fil_lib\src\adc.o
 .debug_line    0x000016f1      0x8da obj\debug\fil_lib\src\i2c.o
 .debug_line    0x00001fcb      0x357 obj\debug\fil_lib\src\rcc.o
 .debug_line    0x00002322      0x75a obj\debug\fil_lib\src\tim.o
 .debug_line    0x00002a7c      0xca3 obj\debug\src\functions.o
 .debug_line    0x0000371f      0x33a obj\debug\src\main.o
 .debug_line    0x00003a59      0x3ca obj\debug\src\oled.o
 .debug_line    0x00003e23      0x2b9 obj\debug\src\system_stm32f4xx.o

.debug_info     0x00000000     0xca8f
 .debug_info    0x00000000       0x22 obj\debug\src\startup_stm32f401xc.o
 .debug_info    0x00000022     0x1240 obj\debug\external\colorsensor\tcs3472.o
 .debug_info    0x00001262     0x169d obj\debug\external\ssd1306\ssd1306.o
 .debug_info    0x000028ff     0x1062 obj\debug\external\ssd1306\ssd1306_i2c.o
 .debug_info    0x00003961      0xf09 obj\debug\fil_lib\src\adc.o
 .debug_info    0x0000486a     0x1512 obj\debug\fil_lib\src\i2c.o
 .debug_info    0x00005d7c      0xf52 obj\debug\fil_lib\src\rcc.o
 .debug_info    0x00006cce     0x117c obj\debug\fil_lib\src\tim.o
 .debug_info    0x00007e4a     0x2223 obj\debug\src\functions.o
 .debug_info    0x0000a06d     0x12f9 obj\debug\src\main.o
 .debug_info    0x0000b366     0x10c1 obj\debug\src\oled.o
 .debug_info    0x0000c427      0x668 obj\debug\src\system_stm32f4xx.o

.debug_abbrev   0x00000000     0x1e8a
 .debug_abbrev  0x00000000       0x12 obj\debug\src\startup_stm32f401xc.o
 .debug_abbrev  0x00000012      0x2ac obj\debug\external\colorsensor\tcs3472.o
 .debug_abbrev  0x000002be      0x357 obj\debug\external\ssd1306\ssd1306.o
 .debug_abbrev  0x00000615      0x2b4 obj\debug\external\ssd1306\ssd1306_i2c.o
 .debug_abbrev  0x000008c9      0x26a obj\debug\fil_lib\src\adc.o
 .debug_abbrev  0x00000b33      0x317 obj\debug\fil_lib\src\i2c.o
 .debug_abbrev  0x00000e4a      0x227 obj\debug\fil_lib\src\rcc.o
 .debug_abbrev  0x00001071      0x2ac obj\debug\fil_lib\src\tim.o
 .debug_abbrev  0x0000131d      0x45e obj\debug\src\functions.o
 .debug_abbrev  0x0000177b      0x2ee obj\debug\src\main.o
 .debug_abbrev  0x00001a69      0x2a9 obj\debug\src\oled.o
 .debug_abbrev  0x00001d12      0x178 obj\debug\src\system_stm32f4xx.o

.debug_aranges  0x00000000      0x458
 .debug_aranges
                0x00000000       0x28 obj\debug\src\startup_stm32f401xc.o
 .debug_aranges
                0x00000028       0x78 obj\debug\external\colorsensor\tcs3472.o
 .debug_aranges
                0x000000a0       0xa8 obj\debug\external\ssd1306\ssd1306.o
 .debug_aranges
                0x00000148       0x48 obj\debug\external\ssd1306\ssd1306_i2c.o
 .debug_aranges
                0x00000190       0x28 obj\debug\fil_lib\src\adc.o
 .debug_aranges
                0x000001b8       0xa0 obj\debug\fil_lib\src\i2c.o
 .debug_aranges
                0x00000258       0x20 obj\debug\fil_lib\src\rcc.o
 .debug_aranges
                0x00000278       0x78 obj\debug\fil_lib\src\tim.o
 .debug_aranges
                0x000002f0       0xd8 obj\debug\src\functions.o
 .debug_aranges
                0x000003c8       0x30 obj\debug\src\main.o
 .debug_aranges
                0x000003f8       0x30 obj\debug\src\oled.o
 .debug_aranges
                0x00000428       0x30 obj\debug\src\system_stm32f4xx.o

.debug_str      0x00000000     0x1a28
 .debug_str     0x00000000       0x52 obj\debug\src\startup_stm32f401xc.o
 .debug_str     0x00000052      0x8df obj\debug\external\colorsensor\tcs3472.o
                                0x9f5 (size before relaxing)
 .debug_str     0x00000931      0x26a obj\debug\external\ssd1306\ssd1306.o
                                0xaac (size before relaxing)
 .debug_str     0x00000b9b       0xd4 obj\debug\external\ssd1306\ssd1306_i2c.o
                                0x920 (size before relaxing)
 .debug_str     0x00000c6f       0x95 obj\debug\fil_lib\src\adc.o
                                0x844 (size before relaxing)
 .debug_str     0x00000d04      0x281 obj\debug\fil_lib\src\i2c.o
                                0xaeb (size before relaxing)
 .debug_str     0x00000f85       0x20 obj\debug\fil_lib\src\rcc.o
                                0x8f0 (size before relaxing)
 .debug_str     0x00000fa5      0x190 obj\debug\fil_lib\src\tim.o
                                0x9b8 (size before relaxing)
 .debug_str     0x00001135      0x760 obj\debug\src\functions.o
                               0x122e (size before relaxing)
 .debug_str     0x00001895       0xa1 obj\debug\src\main.o
                                0xa33 (size before relaxing)
 .debug_str     0x00001936       0x37 obj\debug\src\oled.o
                                0x909 (size before relaxing)
 .debug_str     0x0000196d       0xbb obj\debug\src\system_stm32f4xx.o
                                0x3fc (size before relaxing)

.debug_ranges   0x00000000      0x3a0
 .debug_ranges  0x00000000       0x20 obj\debug\src\startup_stm32f401xc.o
 .debug_ranges  0x00000020       0x68 obj\debug\external\colorsensor\tcs3472.o
 .debug_ranges  0x00000088       0x98 obj\debug\external\ssd1306\ssd1306.o
 .debug_ranges  0x00000120       0x38 obj\debug\external\ssd1306\ssd1306_i2c.o
 .debug_ranges  0x00000158       0x18 obj\debug\fil_lib\src\adc.o
 .debug_ranges  0x00000170       0x90 obj\debug\fil_lib\src\i2c.o
 .debug_ranges  0x00000200       0x10 obj\debug\fil_lib\src\rcc.o
 .debug_ranges  0x00000210       0x68 obj\debug\fil_lib\src\tim.o
 .debug_ranges  0x00000278       0xc8 obj\debug\src\functions.o
 .debug_ranges  0x00000340       0x20 obj\debug\src\main.o
 .debug_ranges  0x00000360       0x20 obj\debug\src\oled.o
 .debug_ranges  0x00000380       0x20 obj\debug\src\system_stm32f4xx.o

.comment        0x00000000       0x4c
 .comment       0x00000000       0x4c obj\debug\external\colorsensor\tcs3472.o
                                 0x4d (size before relaxing)
 .comment       0x0000004c       0x4d obj\debug\external\ssd1306\ssd1306.o
 .comment       0x0000004c       0x4d obj\debug\external\ssd1306\ssd1306_i2c.o
 .comment       0x0000004c       0x4d obj\debug\fil_lib\src\adc.o
 .comment       0x0000004c       0x4d obj\debug\fil_lib\src\i2c.o
 .comment       0x0000004c       0x4d obj\debug\fil_lib\src\rcc.o
 .comment       0x0000004c       0x4d obj\debug\fil_lib\src\tim.o
 .comment       0x0000004c       0x4d obj\debug\src\functions.o
 .comment       0x0000004c       0x4d obj\debug\src\main.o
 .comment       0x0000004c       0x4d obj\debug\src\oled.o
 .comment       0x0000004c       0x4d obj\debug\src\system_stm32f4xx.o

.debug_frame    0x00000000     0x12c4
 .debug_frame   0x00000000      0x1cc obj\debug\external\colorsensor\tcs3472.o
 .debug_frame   0x000001cc      0x2b8 obj\debug\external\ssd1306\ssd1306.o
 .debug_frame   0x00000484       0xf4 obj\debug\external\ssd1306\ssd1306_i2c.o
 .debug_frame   0x00000578       0x58 obj\debug\fil_lib\src\adc.o
 .debug_frame   0x000005d0      0x274 obj\debug\fil_lib\src\i2c.o
 .debug_frame   0x00000844       0x30 obj\debug\fil_lib\src\rcc.o
 .debug_frame   0x00000874      0x1bc obj\debug\fil_lib\src\tim.o
 .debug_frame   0x00000a30      0x334 obj\debug\src\functions.o
 .debug_frame   0x00000d64       0x7c obj\debug\src\main.o
 .debug_frame   0x00000de0       0x84 obj\debug\src\oled.o
 .debug_frame   0x00000e64       0x7c obj\debug\src\system_stm32f4xx.o
 .debug_frame   0x00000ee0       0x54 c:/program files (x86)/embitz/2.30/share/armgcc/bin/../lib/gcc/arm-none-eabi/9.3.1/../../../../arm-none-eabi/lib/thumb/v7e-m+fp/hard\libm.a(lib_a-wf_pow.o)
 .debug_frame   0x00000f34       0x74 c:/program files (x86)/embitz/2.30/share/armgcc/bin/../lib/gcc/arm-none-eabi/9.3.1/../../../../arm-none-eabi/lib/thumb/v7e-m+fp/hard\libm.a(lib_a-ef_pow.o)
 .debug_frame   0x00000fa8       0x20 c:/program files (x86)/embitz/2.30/share/armgcc/bin/../lib/gcc/arm-none-eabi/9.3.1/../../../../arm-none-eabi/lib/thumb/v7e-m+fp/hard\libm.a(lib_a-ef_sqrt.o)
 .debug_frame   0x00000fc8       0x20 c:/program files (x86)/embitz/2.30/share/armgcc/bin/../lib/gcc/arm-none-eabi/9.3.1/../../../../arm-none-eabi/lib/thumb/v7e-m+fp/hard\libm.a(lib_a-sf_fabs.o)
 .debug_frame   0x00000fe8       0x28 c:/program files (x86)/embitz/2.30/share/armgcc/bin/../lib/gcc/arm-none-eabi/9.3.1/../../../../arm-none-eabi/lib/thumb/v7e-m+fp/hard\libm.a(lib_a-sf_finite.o)
 .debug_frame   0x00001010       0x20 c:/program files (x86)/embitz/2.30/share/armgcc/bin/../lib/gcc/arm-none-eabi/9.3.1/../../../../arm-none-eabi/lib/thumb/v7e-m+fp/hard\libm.a(lib_a-sf_nan.o)
 .debug_frame   0x00001030       0x34 c:/program files (x86)/embitz/2.30/share/armgcc/bin/../lib/gcc/arm-none-eabi/9.3.1/../../../../arm-none-eabi/lib/thumb/v7e-m+fp/hard\libm.a(lib_a-sf_rint.o)
 .debug_frame   0x00001064       0x3c c:/program files (x86)/embitz/2.30/share/armgcc/bin/../lib/gcc/arm-none-eabi/9.3.1/../../../../arm-none-eabi/lib/thumb/v7e-m+fp/hard\libm.a(lib_a-sf_scalbn.o)
 .debug_frame   0x000010a0       0xac c:/program files (x86)/embitz/2.30/share/armgcc/bin/../lib/gcc/arm-none-eabi/9.3.1/thumb/v7e-m+fp/hard\libgcc.a(_arm_addsubdf3.o)
 .debug_frame   0x0000114c       0x50 c:/program files (x86)/embitz/2.30/share/armgcc/bin/../lib/gcc/arm-none-eabi/9.3.1/thumb/v7e-m+fp/hard\libgcc.a(_arm_muldivdf3.o)
 .debug_frame   0x0000119c       0xc4 c:/program files (x86)/embitz/2.30/share/armgcc/bin/../lib/gcc/arm-none-eabi/9.3.1/thumb/v7e-m+fp/hard\libgcc.a(_arm_cmpdf2.o)
 .debug_frame   0x00001260       0x24 c:/program files (x86)/embitz/2.30/share/armgcc/bin/../lib/gcc/arm-none-eabi/9.3.1/thumb/v7e-m+fp/hard\libgcc.a(_arm_truncdfsf2.o)
 .debug_frame   0x00001284       0x20 c:/program files (x86)/embitz/2.30/share/armgcc/bin/../lib/gcc/arm-none-eabi/9.3.1/../../../../arm-none-eabi/lib/thumb/v7e-m+fp/hard\libg_nano.a(lib_a-errno.o)
 .debug_frame   0x000012a4       0x20 c:/program files (x86)/embitz/2.30/share/armgcc/bin/../lib/gcc/arm-none-eabi/9.3.1/../../../../arm-none-eabi/lib/thumb/v7e-m+fp/hard\libg_nano.a(lib_a-memset.o)
